
build/iris/main.exe:     file format elf32-avr


Disassembly of section .text:

00000000 <__vectors>:
       0:	0c 94 86 01 	jmp	0x30c	; 0x30c <__ctors_end>
       4:	0c 94 a5 01 	jmp	0x34a	; 0x34a <__bad_interrupt>
       8:	0c 94 a5 01 	jmp	0x34a	; 0x34a <__bad_interrupt>
       c:	0c 94 a5 01 	jmp	0x34a	; 0x34a <__bad_interrupt>
      10:	0c 94 a5 01 	jmp	0x34a	; 0x34a <__bad_interrupt>
      14:	0c 94 a5 01 	jmp	0x34a	; 0x34a <__bad_interrupt>
      18:	0c 94 a5 01 	jmp	0x34a	; 0x34a <__bad_interrupt>
      1c:	0c 94 a5 01 	jmp	0x34a	; 0x34a <__bad_interrupt>
      20:	0c 94 a5 01 	jmp	0x34a	; 0x34a <__bad_interrupt>
      24:	0c 94 a5 01 	jmp	0x34a	; 0x34a <__bad_interrupt>
      28:	0c 94 a5 01 	jmp	0x34a	; 0x34a <__bad_interrupt>
      2c:	0c 94 a5 01 	jmp	0x34a	; 0x34a <__bad_interrupt>
      30:	0c 94 a5 01 	jmp	0x34a	; 0x34a <__bad_interrupt>
      34:	0c 94 fc 12 	jmp	0x25f8	; 0x25f8 <__vector_13>
      38:	0c 94 a5 01 	jmp	0x34a	; 0x34a <__bad_interrupt>
      3c:	0c 94 45 13 	jmp	0x268a	; 0x268a <__vector_15>
      40:	0c 94 58 14 	jmp	0x28b0	; 0x28b0 <__vector_16>
      44:	0c 94 09 14 	jmp	0x2812	; 0x2812 <__vector_17>
      48:	0c 94 42 14 	jmp	0x2884	; 0x2884 <__vector_18>
      4c:	0c 94 4d 14 	jmp	0x289a	; 0x289a <__vector_19>
      50:	0c 94 91 14 	jmp	0x2922	; 0x2922 <__vector_20>
      54:	0c 94 a5 01 	jmp	0x34a	; 0x34a <__bad_interrupt>
      58:	0c 94 a5 01 	jmp	0x34a	; 0x34a <__bad_interrupt>
      5c:	0c 94 a5 01 	jmp	0x34a	; 0x34a <__bad_interrupt>
      60:	0c 94 6d 13 	jmp	0x26da	; 0x26da <__vector_24>
      64:	0c 94 32 15 	jmp	0x2a64	; 0x2a64 <__vector_25>
      68:	0c 94 a5 01 	jmp	0x34a	; 0x34a <__bad_interrupt>
      6c:	0c 94 a6 15 	jmp	0x2b4c	; 0x2b4c <__vector_27>
      70:	0c 94 a5 01 	jmp	0x34a	; 0x34a <__bad_interrupt>
      74:	0c 94 bc 14 	jmp	0x2978	; 0x2978 <__vector_29>
      78:	0c 94 a5 01 	jmp	0x34a	; 0x34a <__bad_interrupt>
      7c:	0c 94 ed 16 	jmp	0x2dda	; 0x2dda <__vector_31>
      80:	0c 94 cc 16 	jmp	0x2d98	; 0x2d98 <__vector_32>
      84:	0c 94 d7 16 	jmp	0x2dae	; 0x2dae <__vector_33>
      88:	0c 94 e2 16 	jmp	0x2dc4	; 0x2dc4 <__vector_34>
      8c:	0c 94 00 17 	jmp	0x2e00	; 0x2e00 <__vector_35>
      90:	0c 94 b0 16 	jmp	0x2d60	; 0x2d60 <__vector_36>
      94:	0c 94 a5 01 	jmp	0x34a	; 0x34a <__bad_interrupt>
      98:	0c 94 c1 16 	jmp	0x2d82	; 0x2d82 <__vector_38>
      9c:	0c 94 a5 01 	jmp	0x34a	; 0x34a <__bad_interrupt>
      a0:	0c 94 a5 01 	jmp	0x34a	; 0x34a <__bad_interrupt>
      a4:	0c 94 a5 01 	jmp	0x34a	; 0x34a <__bad_interrupt>
      a8:	0c 94 a5 01 	jmp	0x34a	; 0x34a <__bad_interrupt>
      ac:	0c 94 a5 01 	jmp	0x34a	; 0x34a <__bad_interrupt>
      b0:	0c 94 a5 01 	jmp	0x34a	; 0x34a <__bad_interrupt>
      b4:	0c 94 a5 01 	jmp	0x34a	; 0x34a <__bad_interrupt>
      b8:	0c 94 a5 01 	jmp	0x34a	; 0x34a <__bad_interrupt>
      bc:	0c 94 a5 01 	jmp	0x34a	; 0x34a <__bad_interrupt>
      c0:	0c 94 a5 01 	jmp	0x34a	; 0x34a <__bad_interrupt>
      c4:	0c 94 a5 01 	jmp	0x34a	; 0x34a <__bad_interrupt>
      c8:	0c 94 a5 01 	jmp	0x34a	; 0x34a <__bad_interrupt>
      cc:	f1 0d       	add	r31, r1
      ce:	1e 0e       	add	r1, r30
      d0:	46 0e       	add	r4, r22
      d2:	6f 0e       	add	r6, r31
      d4:	f4 0e       	add	r15, r20
      d6:	2d 0f       	add	r18, r29
      d8:	a1 0f       	add	r26, r17
      da:	e9 0f       	add	r30, r25
      dc:	82 10       	cpse	r8, r2
      de:	2e 10       	cpse	r2, r14
      e0:	41 10       	cpse	r4, r1
      e2:	ac 10       	cpse	r10, r12
      e4:	d4 10       	cpse	r13, r4
      e6:	20 11       	cpse	r18, r0
      e8:	44 11       	cpse	r20, r4
      ea:	5c 11       	cpse	r21, r12
      ec:	2c 12       	cpse	r2, r28
      ee:	50 12       	cpse	r5, r16
      f0:	66 12       	cpse	r6, r22
      f2:	71 12       	cpse	r7, r17
      f4:	79 12       	cpse	r7, r25
      f6:	11 16       	cp	r1, r17
      f8:	1c 16       	cp	r1, r28
      fa:	31 16       	cp	r3, r17
      fc:	78 16       	cp	r7, r24
      fe:	7f 16       	cp	r7, r31
     100:	86 16       	cp	r8, r22
     102:	8d 16       	cp	r8, r29
     104:	94 16       	cp	r9, r20

00000106 <McuSleepC__atm128PowerBits>:
     106:	00 02 0e 06 0c 04                                   ......

0000010c <crcTable>:
     10c:	00 00 21 10 42 20 63 30 84 40 a5 50 c6 60 e7 70     ..!.B c0.@.P.`.p
     11c:	08 81 29 91 4a a1 6b b1 8c c1 ad d1 ce e1 ef f1     ..).J.k.........
     12c:	31 12 10 02 73 32 52 22 b5 52 94 42 f7 72 d6 62     1...s2R".R.B.r.b
     13c:	39 93 18 83 7b b3 5a a3 bd d3 9c c3 ff f3 de e3     9...{.Z.........
     14c:	62 24 43 34 20 04 01 14 e6 64 c7 74 a4 44 85 54     b$C4 ....d.t.D.T
     15c:	6a a5 4b b5 28 85 09 95 ee e5 cf f5 ac c5 8d d5     j.K.(...........
     16c:	53 36 72 26 11 16 30 06 d7 76 f6 66 95 56 b4 46     S6r&..0..v.f.V.F
     17c:	5b b7 7a a7 19 97 38 87 df f7 fe e7 9d d7 bc c7     [.z...8.........
     18c:	c4 48 e5 58 86 68 a7 78 40 08 61 18 02 28 23 38     .H.X.h.x@.a..(#8
     19c:	cc c9 ed d9 8e e9 af f9 48 89 69 99 0a a9 2b b9     ........H.i...+.
     1ac:	f5 5a d4 4a b7 7a 96 6a 71 1a 50 0a 33 3a 12 2a     .Z.J.z.jq.P.3:.*
     1bc:	fd db dc cb bf fb 9e eb 79 9b 58 8b 3b bb 1a ab     ........y.X.;...
     1cc:	a6 6c 87 7c e4 4c c5 5c 22 2c 03 3c 60 0c 41 1c     .l.|.L.\",.<`.A.
     1dc:	ae ed 8f fd ec cd cd dd 2a ad 0b bd 68 8d 49 9d     ........*...h.I.
     1ec:	97 7e b6 6e d5 5e f4 4e 13 3e 32 2e 51 1e 70 0e     .~.n.^.N.>2.Q.p.
     1fc:	9f ff be ef dd df fc cf 1b bf 3a af 59 9f 78 8f     ..........:.Y.x.
     20c:	88 91 a9 81 ca b1 eb a1 0c d1 2d c1 4e f1 6f e1     ..........-.N.o.
     21c:	80 10 a1 00 c2 30 e3 20 04 50 25 40 46 70 67 60     .....0. .P%@Fpg`
     22c:	b9 83 98 93 fb a3 da b3 3d c3 1c d3 7f e3 5e f3     ........=.....^.
     23c:	b1 02 90 12 f3 22 d2 32 35 42 14 52 77 62 56 72     .....".25B.RwbVr
     24c:	ea b5 cb a5 a8 95 89 85 6e f5 4f e5 2c d5 0d c5     ........n.O.,...
     25c:	e2 34 c3 24 a0 14 81 04 66 74 47 64 24 54 05 44     .4.$....ftGd$T.D
     26c:	db a7 fa b7 99 87 b8 97 5f e7 7e f7 1d c7 3c d7     ........_.~...<.
     27c:	d3 26 f2 36 91 06 b0 16 57 66 76 76 15 46 34 56     .&.6....Wfvv.F4V
     28c:	4c d9 6d c9 0e f9 2f e9 c8 99 e9 89 8a b9 ab a9     L.m.../.........
     29c:	44 58 65 48 06 78 27 68 c0 18 e1 08 82 38 a3 28     DXeH.x'h.....8.(
     2ac:	7d cb 5c db 3f eb 1e fb f9 8b d8 9b bb ab 9a bb     }.\.?...........
     2bc:	75 4a 54 5a 37 6a 16 7a f1 0a d0 1a b3 2a 92 3a     uJTZ7j.z.....*.:
     2cc:	2e fd 0f ed 6c dd 4d cd aa bd 8b ad e8 9d c9 8d     ....l.M.........
     2dc:	26 7c 07 6c 64 5c 45 4c a2 3c 83 2c e0 1c c1 0c     &|.ld\EL.<.,....
     2ec:	1f ef 3e ff 5d cf 7c df 9b af ba bf d9 8f f8 9f     ..>.].|.........
     2fc:	17 6e 36 7e 55 4e 74 5e 93 2e b2 3e d1 0e f0 1e     .n6~UNt^...>....

0000030c <__ctors_end>:
     30c:	11 24       	eor	r1, r1
     30e:	1f be       	out	0x3f, r1	; 63
     310:	cf ef       	ldi	r28, 0xFF	; 255
     312:	d1 e2       	ldi	r29, 0x21	; 33
     314:	de bf       	out	0x3e, r29	; 62
     316:	cd bf       	out	0x3d, r28	; 61

00000318 <__do_copy_data>:
     318:	12 e0       	ldi	r17, 0x02	; 2
     31a:	a0 e0       	ldi	r26, 0x00	; 0
     31c:	b2 e0       	ldi	r27, 0x02	; 2
     31e:	e2 e7       	ldi	r30, 0x72	; 114
     320:	f3 e3       	ldi	r31, 0x33	; 51
     322:	00 e0       	ldi	r16, 0x00	; 0
     324:	0b bf       	out	0x3b, r16	; 59
     326:	02 c0       	rjmp	.+4      	; 0x32c <__do_copy_data+0x14>
     328:	07 90       	elpm	r0, Z+
     32a:	0d 92       	st	X+, r0
     32c:	a4 31       	cpi	r26, 0x14	; 20
     32e:	b1 07       	cpc	r27, r17
     330:	d9 f7       	brne	.-10     	; 0x328 <__do_copy_data+0x10>

00000332 <__do_clear_bss>:
     332:	14 e0       	ldi	r17, 0x04	; 4
     334:	a4 e1       	ldi	r26, 0x14	; 20
     336:	b2 e0       	ldi	r27, 0x02	; 2
     338:	01 c0       	rjmp	.+2      	; 0x33c <.do_clear_bss_start>

0000033a <.do_clear_bss_loop>:
     33a:	1d 92       	st	X+, r1

0000033c <.do_clear_bss_start>:
     33c:	a8 38       	cpi	r26, 0x88	; 136
     33e:	b1 07       	cpc	r27, r17
     340:	e1 f7       	brne	.-8      	; 0x33a <.do_clear_bss_loop>
     342:	0e 94 1d 17 	call	0x2e3a	; 0x2e3a <main>
     346:	0c 94 b7 19 	jmp	0x336e	; 0x336e <_exit>

0000034a <__bad_interrupt>:
     34a:	0c 94 00 00 	jmp	0	; 0x0 <__vectors>

0000034e <HplAtm128GeneralIOPinP__15__IO__clr>:
     34e:	2f 98       	cbi	0x05, 7	; 5
     350:	08 95       	ret

00000352 <HplAtm128GeneralIOPinP__8__IO__set>:
     352:	28 9a       	sbi	0x05, 0	; 5
     354:	08 95       	ret

00000356 <TaskletC__0__Tasklet__suspend>:
     356:	9f b7       	in	r25, 0x3f	; 63
     358:	f8 94       	cli
     35a:	80 91 be 03 	lds	r24, 0x03BE
     35e:	8f 5f       	subi	r24, 0xFF	; 255
     360:	80 93 be 03 	sts	0x03BE, r24
     364:	9f bf       	out	0x3f, r25	; 63
     366:	08 95       	ret

00000368 <Atm128SpiP__FastSpiByte__splitRead>:
     368:	0d b4       	in	r0, 0x2d	; 45
     36a:	07 fe       	sbrs	r0, 7
     36c:	fd cf       	rjmp	.-6      	; 0x368 <Atm128SpiP__FastSpiByte__splitRead>
     36e:	8e b5       	in	r24, 0x2e	; 46
     370:	08 95       	ret

00000372 <Atm128SpiP__FastSpiByte__splitReadWrite>:
     372:	98 2f       	mov	r25, r24
     374:	0d b4       	in	r0, 0x2d	; 45
     376:	07 fe       	sbrs	r0, 7
     378:	fd cf       	rjmp	.-6      	; 0x374 <Atm128SpiP__FastSpiByte__splitReadWrite+0x2>
     37a:	8e b5       	in	r24, 0x2e	; 46
     37c:	9e bd       	out	0x2e, r25	; 46
     37e:	08 95       	ret

00000380 <HplAtm128GeneralIOPinP__8__IO__clr>:
     380:	28 98       	cbi	0x05, 0	; 5
     382:	08 95       	ret

00000384 <_crc_ccitt_update>:
     384:	86 27       	eor	r24, r22
     386:	08 2e       	mov	r0, r24
     388:	82 95       	swap	r24
     38a:	80 7f       	andi	r24, 0xF0	; 240
     38c:	80 25       	eor	r24, r0
     38e:	09 2e       	mov	r0, r25
     390:	98 2f       	mov	r25, r24
     392:	82 95       	swap	r24
     394:	8f 70       	andi	r24, 0x0F	; 15
     396:	08 26       	eor	r0, r24
     398:	86 95       	lsr	r24
     39a:	98 27       	eor	r25, r24
     39c:	89 27       	eor	r24, r25
     39e:	88 0f       	add	r24, r24
     3a0:	88 0f       	add	r24, r24
     3a2:	88 0f       	add	r24, r24
     3a4:	80 25       	eor	r24, r0
     3a6:	08 95       	ret

000003a8 <SerialP__rxInit>:
     3a8:	e6 ec       	ldi	r30, 0xC6	; 198
     3aa:	f3 e0       	ldi	r31, 0x03	; 3
     3ac:	11 82       	std	Z+1, r1	; 0x01
     3ae:	10 82       	st	Z, r1
     3b0:	84 e0       	ldi	r24, 0x04	; 4
     3b2:	80 93 9c 02 	sts	0x029C, r24
     3b6:	10 92 bd 03 	sts	0x03BD, r1
     3ba:	10 92 d0 03 	sts	0x03D0, r1
     3be:	10 92 a0 02 	sts	0x02A0, r1
     3c2:	10 92 44 03 	sts	0x0344, r1
     3c6:	10 92 43 03 	sts	0x0343, r1
     3ca:	08 95       	ret

000003cc <SchedulerBasicP__popTask>:
     3cc:	80 91 d5 03 	lds	r24, 0x03D5
     3d0:	8f 3f       	cpi	r24, 0xFF	; 255
     3d2:	69 f0       	breq	.+26     	; 0x3ee <SchedulerBasicP__popTask+0x22>
     3d4:	e8 2f       	mov	r30, r24
     3d6:	f0 e0       	ldi	r31, 0x00	; 0
     3d8:	ea 5b       	subi	r30, 0xBA	; 186
     3da:	fd 4f       	sbci	r31, 0xFD	; 253
     3dc:	90 81       	ld	r25, Z
     3de:	90 93 d5 03 	sts	0x03D5, r25
     3e2:	9f 3f       	cpi	r25, 0xFF	; 255
     3e4:	11 f4       	brne	.+4      	; 0x3ea <SchedulerBasicP__popTask+0x1e>
     3e6:	90 93 76 04 	sts	0x0476, r25
     3ea:	9f ef       	ldi	r25, 0xFF	; 255
     3ec:	90 83       	st	Z, r25
     3ee:	08 95       	ret

000003f0 <HplAtm1281Timer2AsyncP__stabiliseTimer2>:
     3f0:	80 91 b0 00 	lds	r24, 0x00B0
     3f4:	80 93 b0 00 	sts	0x00B0, r24
     3f8:	80 91 b6 00 	lds	r24, 0x00B6
     3fc:	81 fd       	sbrc	r24, 1
     3fe:	fc cf       	rjmp	.-8      	; 0x3f8 <HplAtm1281Timer2AsyncP__stabiliseTimer2+0x8>
     400:	08 95       	ret

00000402 <SchedulerBasicP__TaskBasic__postTask>:
     402:	9f b7       	in	r25, 0x3f	; 63
     404:	f8 94       	cli
     406:	e8 2f       	mov	r30, r24
     408:	f0 e0       	ldi	r31, 0x00	; 0
     40a:	ea 5b       	subi	r30, 0xBA	; 186
     40c:	fd 4f       	sbci	r31, 0xFD	; 253
     40e:	20 81       	ld	r18, Z
     410:	2f 3f       	cpi	r18, 0xFF	; 255
     412:	99 f4       	brne	.+38     	; 0x43a <SchedulerBasicP__TaskBasic__postTask+0x38>
     414:	e0 91 76 04 	lds	r30, 0x0476
     418:	e8 17       	cp	r30, r24
     41a:	79 f0       	breq	.+30     	; 0x43a <SchedulerBasicP__TaskBasic__postTask+0x38>
     41c:	20 91 d5 03 	lds	r18, 0x03D5
     420:	2f 3f       	cpi	r18, 0xFF	; 255
     422:	19 f4       	brne	.+6      	; 0x42a <SchedulerBasicP__TaskBasic__postTask+0x28>
     424:	80 93 d5 03 	sts	0x03D5, r24
     428:	04 c0       	rjmp	.+8      	; 0x432 <SchedulerBasicP__TaskBasic__postTask+0x30>
     42a:	f0 e0       	ldi	r31, 0x00	; 0
     42c:	ea 5b       	subi	r30, 0xBA	; 186
     42e:	fd 4f       	sbci	r31, 0xFD	; 253
     430:	80 83       	st	Z, r24
     432:	80 93 76 04 	sts	0x0476, r24
     436:	80 e0       	ldi	r24, 0x00	; 0
     438:	01 c0       	rjmp	.+2      	; 0x43c <SchedulerBasicP__TaskBasic__postTask+0x3a>
     43a:	85 e0       	ldi	r24, 0x05	; 5
     43c:	9f bf       	out	0x3f, r25	; 63
     43e:	08 95       	ret

00000440 <MessageBufferLayerP__0__sendTask__postTask>:
     440:	83 e0       	ldi	r24, 0x03	; 3
     442:	0c 94 01 02 	jmp	0x402	; 0x402 <SchedulerBasicP__TaskBasic__postTask>

00000446 <SerialP__testOff>:
     446:	80 91 b7 03 	lds	r24, 0x03B7
     44a:	8a 30       	cpi	r24, 0x0A	; 10
     44c:	21 f4       	brne	.+8      	; 0x456 <SerialP__testOff+0x10>
     44e:	80 91 9c 02 	lds	r24, 0x029C
     452:	84 30       	cpi	r24, 0x04	; 4
     454:	21 f0       	breq	.+8      	; 0x45e <SerialP__testOff+0x18>
     456:	81 e0       	ldi	r24, 0x01	; 1
     458:	80 93 25 02 	sts	0x0225, r24
     45c:	08 95       	ret
     45e:	81 e1       	ldi	r24, 0x11	; 17
     460:	0e 94 01 02 	call	0x402	; 0x402 <SchedulerBasicP__TaskBasic__postTask>
     464:	10 92 25 02 	sts	0x0225, r1
     468:	08 95       	ret

0000046a <SerialP__MaybeScheduleTx>:
     46a:	cf 93       	push	r28
     46c:	cf b7       	in	r28, 0x3f	; 63
     46e:	f8 94       	cli
     470:	80 91 74 04 	lds	r24, 0x0474
     474:	81 11       	cpse	r24, r1
     476:	08 c0       	rjmp	.+16     	; 0x488 <SerialP__MaybeScheduleTx+0x1e>
     478:	8f e0       	ldi	r24, 0x0F	; 15
     47a:	0e 94 01 02 	call	0x402	; 0x402 <SchedulerBasicP__TaskBasic__postTask>
     47e:	81 11       	cpse	r24, r1
     480:	03 c0       	rjmp	.+6      	; 0x488 <SerialP__MaybeScheduleTx+0x1e>
     482:	81 e0       	ldi	r24, 0x01	; 1
     484:	80 93 74 04 	sts	0x0474, r24
     488:	cf bf       	out	0x3f, r28	; 63
     48a:	cf 91       	pop	r28
     48c:	08 95       	ret

0000048e <HplAtm128GeneralIOPinP__2__IO__toggle>:
     48e:	9f b7       	in	r25, 0x3f	; 63
     490:	f8 94       	cli
     492:	22 b1       	in	r18, 0x02	; 2
     494:	84 e0       	ldi	r24, 0x04	; 4
     496:	82 27       	eor	r24, r18
     498:	82 b9       	out	0x02, r24	; 2
     49a:	9f bf       	out	0x3f, r25	; 63
     49c:	08 95       	ret

0000049e <Atm1281AlarmAsyncP__0__Counter__get>:
     49e:	2f b7       	in	r18, 0x3f	; 63
     4a0:	f8 94       	cli
     4a2:	30 91 b2 00 	lds	r19, 0x00B2
     4a6:	80 91 42 02 	lds	r24, 0x0242
     4aa:	90 91 43 02 	lds	r25, 0x0243
     4ae:	a0 91 44 02 	lds	r26, 0x0244
     4b2:	b0 91 45 02 	lds	r27, 0x0245
     4b6:	b9 9b       	sbis	0x17, 1	; 23
     4b8:	0b c0       	rjmp	.+22     	; 0x4d0 <Atm1281AlarmAsyncP__0__Counter__get+0x32>
     4ba:	40 91 b3 00 	lds	r20, 0x00B3
     4be:	30 91 b2 00 	lds	r19, 0x00B2
     4c2:	01 96       	adiw	r24, 0x01	; 1
     4c4:	a1 1d       	adc	r26, r1
     4c6:	b1 1d       	adc	r27, r1
     4c8:	84 0f       	add	r24, r20
     4ca:	91 1d       	adc	r25, r1
     4cc:	a1 1d       	adc	r26, r1
     4ce:	b1 1d       	adc	r27, r1
     4d0:	bc 01       	movw	r22, r24
     4d2:	cd 01       	movw	r24, r26
     4d4:	63 0f       	add	r22, r19
     4d6:	71 1d       	adc	r23, r1
     4d8:	81 1d       	adc	r24, r1
     4da:	91 1d       	adc	r25, r1
     4dc:	2f bf       	out	0x3f, r18	; 63
     4de:	08 95       	ret

000004e0 <ActiveMessageAddressC__amAddress>:
     4e0:	2f b7       	in	r18, 0x3f	; 63
     4e2:	f8 94       	cli
     4e4:	80 91 10 02 	lds	r24, 0x0210
     4e8:	90 91 11 02 	lds	r25, 0x0211
     4ec:	2f bf       	out	0x3f, r18	; 63
     4ee:	08 95       	ret

000004f0 <TransformCounterC__0__Counter__get>:
     4f0:	0f 93       	push	r16
     4f2:	1f 93       	push	r17
     4f4:	2f b7       	in	r18, 0x3f	; 63
     4f6:	f8 94       	cli
     4f8:	40 91 3f 03 	lds	r20, 0x033F
     4fc:	50 91 40 03 	lds	r21, 0x0340
     500:	60 91 41 03 	lds	r22, 0x0341
     504:	70 91 42 03 	lds	r23, 0x0342
     508:	80 91 84 00 	lds	r24, 0x0084
     50c:	90 91 85 00 	lds	r25, 0x0085
     510:	b0 9b       	sbis	0x16, 0	; 22
     512:	08 c0       	rjmp	.+16     	; 0x524 <TransformCounterC__0__Counter__get+0x34>
     514:	4f 5f       	subi	r20, 0xFF	; 255
     516:	5f 4f       	sbci	r21, 0xFF	; 255
     518:	6f 4f       	sbci	r22, 0xFF	; 255
     51a:	7f 4f       	sbci	r23, 0xFF	; 255
     51c:	80 91 84 00 	lds	r24, 0x0084
     520:	90 91 85 00 	lds	r25, 0x0085
     524:	2f bf       	out	0x3f, r18	; 63
     526:	ba 01       	movw	r22, r20
     528:	55 27       	eor	r21, r21
     52a:	44 27       	eor	r20, r20
     52c:	a0 e0       	ldi	r26, 0x00	; 0
     52e:	b0 e0       	ldi	r27, 0x00	; 0
     530:	8a 01       	movw	r16, r20
     532:	9b 01       	movw	r18, r22
     534:	08 2b       	or	r16, r24
     536:	19 2b       	or	r17, r25
     538:	2a 2b       	or	r18, r26
     53a:	3b 2b       	or	r19, r27
     53c:	c9 01       	movw	r24, r18
     53e:	b8 01       	movw	r22, r16
     540:	1f 91       	pop	r17
     542:	0f 91       	pop	r16
     544:	08 95       	ret

00000546 <Atm128AlarmC__0__Alarm__start>:
     546:	40 91 84 00 	lds	r20, 0x0084
     54a:	50 91 85 00 	lds	r21, 0x0085
     54e:	6f b7       	in	r22, 0x3f	; 63
     550:	f8 94       	cli
     552:	20 91 84 00 	lds	r18, 0x0084
     556:	30 91 85 00 	lds	r19, 0x0085
     55a:	2d 5f       	subi	r18, 0xFD	; 253
     55c:	3f 4f       	sbci	r19, 0xFF	; 255
     55e:	f9 01       	movw	r30, r18
     560:	e4 1b       	sub	r30, r20
     562:	f5 0b       	sbc	r31, r21
     564:	e8 17       	cp	r30, r24
     566:	f9 07       	cpc	r31, r25
     568:	18 f4       	brcc	.+6      	; 0x570 <Atm128AlarmC__0__Alarm__start+0x2a>
     56a:	9c 01       	movw	r18, r24
     56c:	24 0f       	add	r18, r20
     56e:	35 1f       	adc	r19, r21
     570:	21 15       	cp	r18, r1
     572:	31 05       	cpc	r19, r1
     574:	11 f4       	brne	.+4      	; 0x57a <Atm128AlarmC__0__Alarm__start+0x34>
     576:	21 e0       	ldi	r18, 0x01	; 1
     578:	30 e0       	ldi	r19, 0x00	; 0
     57a:	21 50       	subi	r18, 0x01	; 1
     57c:	31 09       	sbc	r19, r1
     57e:	30 93 89 00 	sts	0x0089, r19
     582:	20 93 88 00 	sts	0x0088, r18
     586:	82 e0       	ldi	r24, 0x02	; 2
     588:	86 bb       	out	0x16, r24	; 22
     58a:	80 91 6f 00 	lds	r24, 0x006F
     58e:	82 60       	ori	r24, 0x02	; 2
     590:	80 93 6f 00 	sts	0x006F, r24
     594:	6f bf       	out	0x3f, r22	; 63
     596:	08 95       	ret

00000598 <RandomCollisionLayerP__0__getBackoff>:
     598:	0f 93       	push	r16
     59a:	1f 93       	push	r17
     59c:	cf 93       	push	r28
     59e:	df 93       	push	r29
     5a0:	8c 01       	movw	r16, r24
     5a2:	8f b7       	in	r24, 0x3f	; 63
     5a4:	f8 94       	cli
     5a6:	c0 91 ba 03 	lds	r28, 0x03BA
     5aa:	d0 91 bb 03 	lds	r29, 0x03BB
     5ae:	9e 01       	movw	r18, r28
     5b0:	2f 5e       	subi	r18, 0xEF	; 239
     5b2:	3e 4f       	sbci	r19, 0xFE	; 254
     5b4:	30 93 bb 03 	sts	0x03BB, r19
     5b8:	20 93 ba 03 	sts	0x03BA, r18
     5bc:	8f bf       	out	0x3f, r24	; 63
     5be:	85 e0       	ldi	r24, 0x05	; 5
     5c0:	0e 94 01 02 	call	0x402	; 0x402 <SchedulerBasicP__TaskBasic__postTask>
     5c4:	ce 01       	movw	r24, r28
     5c6:	b8 01       	movw	r22, r16
     5c8:	0e 94 31 19 	call	0x3262	; 0x3262 <__udivmodhi4>
     5cc:	8a 5d       	subi	r24, 0xDA	; 218
     5ce:	9e 4f       	sbci	r25, 0xFE	; 254
     5d0:	df 91       	pop	r29
     5d2:	cf 91       	pop	r28
     5d4:	1f 91       	pop	r17
     5d6:	0f 91       	pop	r16
     5d8:	08 95       	ret

000005da <crcByte>:
     5da:	ec e0       	ldi	r30, 0x0C	; 12
     5dc:	f1 e0       	ldi	r31, 0x01	; 1
     5de:	69 27       	eor	r22, r25
     5e0:	66 0f       	add	r22, r22
     5e2:	f1 1d       	adc	r31, r1
     5e4:	e6 0f       	add	r30, r22
     5e6:	f1 1d       	adc	r31, r1
     5e8:	c8 95       	lpm
     5ea:	98 2f       	mov	r25, r24
     5ec:	80 2d       	mov	r24, r0
     5ee:	31 96       	adiw	r30, 0x01	; 1
     5f0:	c8 95       	lpm
     5f2:	90 25       	eor	r25, r0
     5f4:	08 95       	ret

000005f6 <SerialDispatcherP__0__ReceiveBytePacket__endPacket>:
     5f6:	20 91 19 02 	lds	r18, 0x0219
     5fa:	90 91 24 02 	lds	r25, 0x0224
     5fe:	21 11       	cpse	r18, r1
     600:	2f c0       	rjmp	.+94     	; 0x660 <SerialDispatcherP__0__ReceiveBytePacket__endPacket+0x6a>
     602:	81 11       	cpse	r24, r1
     604:	2d c0       	rjmp	.+90     	; 0x660 <SerialDispatcherP__0__ReceiveBytePacket__endPacket+0x6a>
     606:	81 e0       	ldi	r24, 0x01	; 1
     608:	80 93 19 02 	sts	0x0219, r24
     60c:	20 91 06 02 	lds	r18, 0x0206
     610:	20 93 18 02 	sts	0x0218, r18
     614:	29 2f       	mov	r18, r25
     616:	21 70       	andi	r18, 0x01	; 1
     618:	20 93 3b 02 	sts	0x023B, r18
     61c:	20 91 00 02 	lds	r18, 0x0200
     620:	30 91 01 02 	lds	r19, 0x0201
     624:	30 93 17 02 	sts	0x0217, r19
     628:	20 93 16 02 	sts	0x0216, r18
     62c:	20 91 23 02 	lds	r18, 0x0223
     630:	20 93 15 02 	sts	0x0215, r18
     634:	29 2f       	mov	r18, r25
     636:	21 70       	andi	r18, 0x01	; 1
     638:	82 27       	eor	r24, r18
     63a:	96 7e       	andi	r25, 0xE6	; 230
     63c:	e8 2f       	mov	r30, r24
     63e:	f0 e0       	ldi	r31, 0x00	; 0
     640:	ee 0f       	add	r30, r30
     642:	ff 1f       	adc	r31, r31
     644:	ee 5f       	subi	r30, 0xFE	; 254
     646:	fd 4f       	sbci	r31, 0xFD	; 253
     648:	20 81       	ld	r18, Z
     64a:	31 81       	ldd	r19, Z+1	; 0x01
     64c:	30 93 01 02 	sts	0x0201, r19
     650:	20 93 00 02 	sts	0x0200, r18
     654:	98 2b       	or	r25, r24
     656:	90 93 24 02 	sts	0x0224, r25
     65a:	84 e1       	ldi	r24, 0x14	; 20
     65c:	0c 94 01 02 	jmp	0x402	; 0x402 <SchedulerBasicP__TaskBasic__postTask>
     660:	90 ff       	sbrs	r25, 0
     662:	02 c0       	rjmp	.+4      	; 0x668 <SerialDispatcherP__0__ReceiveBytePacket__endPacket+0x72>
     664:	9b 7f       	andi	r25, 0xFB	; 251
     666:	01 c0       	rjmp	.+2      	; 0x66a <SerialDispatcherP__0__ReceiveBytePacket__endPacket+0x74>
     668:	9d 7f       	andi	r25, 0xFD	; 253
     66a:	90 93 24 02 	sts	0x0224, r25
     66e:	08 95       	ret

00000670 <SerialP__rx_state_machine>:
     670:	cf 93       	push	r28
     672:	df 93       	push	r29
     674:	d8 2f       	mov	r29, r24
     676:	c6 2f       	mov	r28, r22
     678:	80 91 9c 02 	lds	r24, 0x029C
     67c:	81 30       	cpi	r24, 0x01	; 1
     67e:	61 f0       	breq	.+24     	; 0x698 <SerialP__rx_state_machine+0x28>
     680:	28 f0       	brcs	.+10     	; 0x68c <SerialP__rx_state_machine+0x1c>
     682:	82 30       	cpi	r24, 0x02	; 2
     684:	99 f0       	breq	.+38     	; 0x6ac <SerialP__rx_state_machine+0x3c>
     686:	83 30       	cpi	r24, 0x03	; 3
     688:	19 f1       	breq	.+70     	; 0x6d0 <SerialP__rx_state_machine+0x60>
     68a:	e2 c0       	rjmp	.+452    	; 0x850 <SerialP__rx_state_machine+0x1e0>
     68c:	dd 23       	and	r29, r29
     68e:	09 f4       	brne	.+2      	; 0x692 <SerialP__rx_state_machine+0x22>
     690:	25 c1       	rjmp	.+586    	; 0x8dc <SerialP__rx_state_machine+0x26c>
     692:	0e 94 d4 01 	call	0x3a8	; 0x3a8 <SerialP__rxInit>
     696:	ec c0       	rjmp	.+472    	; 0x870 <SerialP__rx_state_machine+0x200>
     698:	d1 11       	cpse	r29, r1
     69a:	20 c1       	rjmp	.+576    	; 0x8dc <SerialP__rx_state_machine+0x26c>
     69c:	60 93 d0 03 	sts	0x03D0, r22
     6a0:	8c eb       	ldi	r24, 0xBC	; 188
     6a2:	86 0f       	add	r24, r22
     6a4:	82 30       	cpi	r24, 0x02	; 2
     6a6:	08 f0       	brcs	.+2      	; 0x6aa <SerialP__rx_state_machine+0x3a>
     6a8:	d3 c0       	rjmp	.+422    	; 0x850 <SerialP__rx_state_machine+0x1e0>
     6aa:	e4 c0       	rjmp	.+456    	; 0x874 <SerialP__rx_state_machine+0x204>
     6ac:	d1 11       	cpse	r29, r1
     6ae:	d0 c0       	rjmp	.+416    	; 0x850 <SerialP__rx_state_machine+0x1e0>
     6b0:	60 93 a0 02 	sts	0x02A0, r22
     6b4:	80 91 43 03 	lds	r24, 0x0343
     6b8:	90 91 44 03 	lds	r25, 0x0344
     6bc:	0e 94 ed 02 	call	0x5da	; 0x5da <crcByte>
     6c0:	90 93 44 03 	sts	0x0344, r25
     6c4:	80 93 43 03 	sts	0x0343, r24
     6c8:	83 e0       	ldi	r24, 0x03	; 3
     6ca:	80 93 9c 02 	sts	0x029C, r24
     6ce:	06 c1       	rjmp	.+524    	; 0x8dc <SerialP__rx_state_machine+0x26c>
     6d0:	80 91 bd 03 	lds	r24, 0x03BD
     6d4:	8f 3f       	cpi	r24, 0xFF	; 255
     6d6:	09 f4       	brne	.+2      	; 0x6da <SerialP__rx_state_machine+0x6a>
     6d8:	bb c0       	rjmp	.+374    	; 0x850 <SerialP__rx_state_machine+0x1e0>
     6da:	dd 23       	and	r29, r29
     6dc:	09 f4       	brne	.+2      	; 0x6e0 <SerialP__rx_state_machine+0x70>
     6de:	54 c0       	rjmp	.+168    	; 0x788 <SerialP__rx_state_machine+0x118>
     6e0:	82 30       	cpi	r24, 0x02	; 2
     6e2:	08 f4       	brcc	.+2      	; 0x6e6 <SerialP__rx_state_machine+0x76>
     6e4:	b5 c0       	rjmp	.+362    	; 0x850 <SerialP__rx_state_machine+0x1e0>
     6e6:	e0 91 c6 03 	lds	r30, 0x03C6
     6ea:	ee 23       	and	r30, r30
     6ec:	11 f0       	breq	.+4      	; 0x6f2 <SerialP__rx_state_machine+0x82>
     6ee:	e1 50       	subi	r30, 0x01	; 1
     6f0:	01 c0       	rjmp	.+2      	; 0x6f4 <SerialP__rx_state_machine+0x84>
     6f2:	e2 e0       	ldi	r30, 0x02	; 2
     6f4:	ae 2f       	mov	r26, r30
     6f6:	b0 e0       	ldi	r27, 0x00	; 0
     6f8:	aa 53       	subi	r26, 0x3A	; 58
     6fa:	bc 4f       	sbci	r27, 0xFC	; 252
     6fc:	12 96       	adiw	r26, 0x02	; 2
     6fe:	2c 91       	ld	r18, X
     700:	30 e0       	ldi	r19, 0x00	; 0
     702:	32 2f       	mov	r19, r18
     704:	22 27       	eor	r18, r18
     706:	ee 23       	and	r30, r30
     708:	11 f0       	breq	.+4      	; 0x70e <SerialP__rx_state_machine+0x9e>
     70a:	e1 50       	subi	r30, 0x01	; 1
     70c:	01 c0       	rjmp	.+2      	; 0x710 <SerialP__rx_state_machine+0xa0>
     70e:	e2 e0       	ldi	r30, 0x02	; 2
     710:	f0 e0       	ldi	r31, 0x00	; 0
     712:	ea 53       	subi	r30, 0x3A	; 58
     714:	fc 4f       	sbci	r31, 0xFC	; 252
     716:	82 81       	ldd	r24, Z+2	; 0x02
     718:	28 2b       	or	r18, r24
     71a:	80 91 43 03 	lds	r24, 0x0343
     71e:	90 91 44 03 	lds	r25, 0x0344
     722:	28 17       	cp	r18, r24
     724:	39 07       	cpc	r19, r25
     726:	09 f0       	breq	.+2      	; 0x72a <SerialP__rx_state_machine+0xba>
     728:	93 c0       	rjmp	.+294    	; 0x850 <SerialP__rx_state_machine+0x1e0>
     72a:	80 e0       	ldi	r24, 0x00	; 0
     72c:	0e 94 fb 02 	call	0x5f6	; 0x5f6 <SerialDispatcherP__0__ReceiveBytePacket__endPacket>
     730:	80 91 d0 03 	lds	r24, 0x03D0
     734:	84 34       	cpi	r24, 0x44	; 68
     736:	a9 f4       	brne	.+42     	; 0x762 <SerialP__rx_state_machine+0xf2>
     738:	20 91 a0 02 	lds	r18, 0x02A0
     73c:	e0 91 31 03 	lds	r30, 0x0331
     740:	90 91 32 03 	lds	r25, 0x0332
     744:	81 e0       	ldi	r24, 0x01	; 1
     746:	8e 0f       	add	r24, r30
     748:	86 30       	cpi	r24, 0x06	; 6
     74a:	08 f4       	brcc	.+2      	; 0x74e <SerialP__rx_state_machine+0xde>
     74c:	bd c0       	rjmp	.+378    	; 0x8c8 <SerialP__rx_state_machine+0x258>
     74e:	99 23       	and	r25, r25
     750:	41 f0       	breq	.+16     	; 0x762 <SerialP__rx_state_machine+0xf2>
     752:	f0 e0       	ldi	r31, 0x00	; 0
     754:	ef 5c       	subi	r30, 0xCF	; 207
     756:	fc 4f       	sbci	r31, 0xFC	; 252
     758:	22 83       	std	Z+2, r18	; 0x02
     75a:	10 92 31 03 	sts	0x0331, r1
     75e:	0e 94 35 02 	call	0x46a	; 0x46a <SerialP__MaybeScheduleTx>
     762:	0e 94 d4 01 	call	0x3a8	; 0x3a8 <SerialP__rxInit>
     766:	80 91 14 02 	lds	r24, 0x0214
     76a:	8d 7f       	andi	r24, 0xFD	; 253
     76c:	80 93 14 02 	sts	0x0214, r24
     770:	80 91 25 02 	lds	r24, 0x0225
     774:	88 23       	and	r24, r24
     776:	09 f4       	brne	.+2      	; 0x77a <SerialP__rx_state_machine+0x10a>
     778:	b1 c0       	rjmp	.+354    	; 0x8dc <SerialP__rx_state_machine+0x26c>
     77a:	84 e0       	ldi	r24, 0x04	; 4
     77c:	80 93 9c 02 	sts	0x029C, r24
     780:	df 91       	pop	r29
     782:	cf 91       	pop	r28
     784:	0c 94 23 02 	jmp	0x446	; 0x446 <SerialP__testOff>
     788:	82 30       	cpi	r24, 0x02	; 2
     78a:	08 f4       	brcc	.+2      	; 0x78e <SerialP__rx_state_machine+0x11e>
     78c:	4c c0       	rjmp	.+152    	; 0x826 <SerialP__rx_state_machine+0x1b6>
     78e:	e0 91 c7 03 	lds	r30, 0x03C7
     792:	f0 e0       	ldi	r31, 0x00	; 0
     794:	ea 53       	subi	r30, 0x3A	; 58
     796:	fc 4f       	sbci	r31, 0xFC	; 252
     798:	92 81       	ldd	r25, Z+2	; 0x02
     79a:	80 91 24 02 	lds	r24, 0x0224
     79e:	28 2f       	mov	r18, r24
     7a0:	26 95       	lsr	r18
     7a2:	26 95       	lsr	r18
     7a4:	26 95       	lsr	r18
     7a6:	23 70       	andi	r18, 0x03	; 3
     7a8:	30 e0       	ldi	r19, 0x00	; 0
     7aa:	21 30       	cpi	r18, 0x01	; 1
     7ac:	31 05       	cpc	r19, r1
     7ae:	21 f0       	breq	.+8      	; 0x7b8 <SerialP__rx_state_machine+0x148>
     7b0:	22 30       	cpi	r18, 0x02	; 2
     7b2:	31 05       	cpc	r19, r1
     7b4:	79 f0       	breq	.+30     	; 0x7d4 <SerialP__rx_state_machine+0x164>
     7b6:	1e c0       	rjmp	.+60     	; 0x7f4 <SerialP__rx_state_machine+0x184>
     7b8:	87 7e       	andi	r24, 0xE7	; 231
     7ba:	80 61       	ori	r24, 0x10	; 16
     7bc:	80 93 24 02 	sts	0x0224, r24
     7c0:	99 23       	and	r25, r25
     7c2:	11 f0       	breq	.+4      	; 0x7c8 <SerialP__rx_state_machine+0x158>
     7c4:	80 e0       	ldi	r24, 0x00	; 0
     7c6:	01 c0       	rjmp	.+2      	; 0x7ca <SerialP__rx_state_machine+0x15a>
     7c8:	85 e0       	ldi	r24, 0x05	; 5
     7ca:	80 93 23 02 	sts	0x0223, r24
     7ce:	90 93 06 02 	sts	0x0206, r25
     7d2:	10 c0       	rjmp	.+32     	; 0x7f4 <SerialP__rx_state_machine+0x184>
     7d4:	80 91 23 02 	lds	r24, 0x0223
     7d8:	8f 32       	cpi	r24, 0x2F	; 47
     7da:	60 f4       	brcc	.+24     	; 0x7f4 <SerialP__rx_state_machine+0x184>
     7dc:	e0 91 00 02 	lds	r30, 0x0200
     7e0:	f0 91 01 02 	lds	r31, 0x0201
     7e4:	e8 0f       	add	r30, r24
     7e6:	f1 1d       	adc	r31, r1
     7e8:	90 83       	st	Z, r25
     7ea:	80 91 23 02 	lds	r24, 0x0223
     7ee:	8f 5f       	subi	r24, 0xFF	; 255
     7f0:	80 93 23 02 	sts	0x0223, r24
     7f4:	80 91 c7 03 	lds	r24, 0x03C7
     7f8:	e8 2f       	mov	r30, r24
     7fa:	f0 e0       	ldi	r31, 0x00	; 0
     7fc:	ea 53       	subi	r30, 0x3A	; 58
     7fe:	fc 4f       	sbci	r31, 0xFC	; 252
     800:	62 81       	ldd	r22, Z+2	; 0x02
     802:	8f 5f       	subi	r24, 0xFF	; 255
     804:	83 30       	cpi	r24, 0x03	; 3
     806:	18 f4       	brcc	.+6      	; 0x80e <SerialP__rx_state_machine+0x19e>
     808:	80 93 c7 03 	sts	0x03C7, r24
     80c:	02 c0       	rjmp	.+4      	; 0x812 <SerialP__rx_state_machine+0x1a2>
     80e:	10 92 c7 03 	sts	0x03C7, r1
     812:	80 91 43 03 	lds	r24, 0x0343
     816:	90 91 44 03 	lds	r25, 0x0344
     81a:	0e 94 ed 02 	call	0x5da	; 0x5da <crcByte>
     81e:	90 93 44 03 	sts	0x0344, r25
     822:	80 93 43 03 	sts	0x0343, r24
     826:	80 91 c6 03 	lds	r24, 0x03C6
     82a:	e8 2f       	mov	r30, r24
     82c:	f0 e0       	ldi	r31, 0x00	; 0
     82e:	ea 53       	subi	r30, 0x3A	; 58
     830:	fc 4f       	sbci	r31, 0xFC	; 252
     832:	c2 83       	std	Z+2, r28	; 0x02
     834:	8f 5f       	subi	r24, 0xFF	; 255
     836:	83 30       	cpi	r24, 0x03	; 3
     838:	18 f4       	brcc	.+6      	; 0x840 <SerialP__rx_state_machine+0x1d0>
     83a:	80 93 c6 03 	sts	0x03C6, r24
     83e:	02 c0       	rjmp	.+4      	; 0x844 <SerialP__rx_state_machine+0x1d4>
     840:	10 92 c6 03 	sts	0x03C6, r1
     844:	80 91 bd 03 	lds	r24, 0x03BD
     848:	8f 5f       	subi	r24, 0xFF	; 255
     84a:	80 93 bd 03 	sts	0x03BD, r24
     84e:	46 c0       	rjmp	.+140    	; 0x8dc <SerialP__rx_state_machine+0x26c>
     850:	0e 94 d4 01 	call	0x3a8	; 0x3a8 <SerialP__rxInit>
     854:	80 91 14 02 	lds	r24, 0x0214
     858:	8d 7f       	andi	r24, 0xFD	; 253
     85a:	80 93 14 02 	sts	0x0214, r24
     85e:	81 e0       	ldi	r24, 0x01	; 1
     860:	0e 94 fb 02 	call	0x5f6	; 0x5f6 <SerialDispatcherP__0__ReceiveBytePacket__endPacket>
     864:	80 91 25 02 	lds	r24, 0x0225
     868:	81 11       	cpse	r24, r1
     86a:	87 cf       	rjmp	.-242    	; 0x77a <SerialP__rx_state_machine+0x10a>
     86c:	dd 23       	and	r29, r29
     86e:	b1 f1       	breq	.+108    	; 0x8dc <SerialP__rx_state_machine+0x26c>
     870:	81 e0       	ldi	r24, 0x01	; 1
     872:	2b cf       	rjmp	.-426    	; 0x6ca <SerialP__rx_state_machine+0x5a>
     874:	80 91 43 03 	lds	r24, 0x0343
     878:	90 91 44 03 	lds	r25, 0x0344
     87c:	0e 94 ed 02 	call	0x5da	; 0x5da <crcByte>
     880:	90 93 44 03 	sts	0x0344, r25
     884:	80 93 43 03 	sts	0x0343, r24
     888:	c4 34       	cpi	r28, 0x44	; 68
     88a:	11 f4       	brne	.+4      	; 0x890 <SerialP__rx_state_machine+0x220>
     88c:	82 e0       	ldi	r24, 0x02	; 2
     88e:	01 c0       	rjmp	.+2      	; 0x892 <SerialP__rx_state_machine+0x222>
     890:	83 e0       	ldi	r24, 0x03	; 3
     892:	80 93 9c 02 	sts	0x029C, r24
     896:	90 91 24 02 	lds	r25, 0x0224
     89a:	90 ff       	sbrs	r25, 0
     89c:	04 c0       	rjmp	.+8      	; 0x8a6 <SerialP__rx_state_machine+0x236>
     89e:	92 fd       	sbrc	r25, 2
     8a0:	d7 cf       	rjmp	.-82     	; 0x850 <SerialP__rx_state_machine+0x1e0>
     8a2:	94 60       	ori	r25, 0x04	; 4
     8a4:	03 c0       	rjmp	.+6      	; 0x8ac <SerialP__rx_state_machine+0x23c>
     8a6:	91 fd       	sbrc	r25, 1
     8a8:	d3 cf       	rjmp	.-90     	; 0x850 <SerialP__rx_state_machine+0x1e0>
     8aa:	92 60       	ori	r25, 0x02	; 2
     8ac:	90 93 24 02 	sts	0x0224, r25
     8b0:	80 91 24 02 	lds	r24, 0x0224
     8b4:	87 7e       	andi	r24, 0xE7	; 231
     8b6:	88 60       	ori	r24, 0x08	; 8
     8b8:	80 93 24 02 	sts	0x0224, r24
     8bc:	10 92 23 02 	sts	0x0223, r1
     8c0:	8f ef       	ldi	r24, 0xFF	; 255
     8c2:	80 93 06 02 	sts	0x0206, r24
     8c6:	0a c0       	rjmp	.+20     	; 0x8dc <SerialP__rx_state_machine+0x26c>
     8c8:	89 17       	cp	r24, r25
     8ca:	09 f4       	brne	.+2      	; 0x8ce <SerialP__rx_state_machine+0x25e>
     8cc:	4a cf       	rjmp	.-364    	; 0x762 <SerialP__rx_state_machine+0xf2>
     8ce:	f0 e0       	ldi	r31, 0x00	; 0
     8d0:	ef 5c       	subi	r30, 0xCF	; 207
     8d2:	fc 4f       	sbci	r31, 0xFC	; 252
     8d4:	22 83       	std	Z+2, r18	; 0x02
     8d6:	80 93 31 03 	sts	0x0331, r24
     8da:	41 cf       	rjmp	.-382    	; 0x75e <SerialP__rx_state_machine+0xee>
     8dc:	df 91       	pop	r29
     8de:	cf 91       	pop	r28
     8e0:	08 95       	ret

000008e2 <BusyWaitMicroC__BusyWait__wait.part.72>:
     8e2:	01 97       	sbiw	r24, 0x01	; 1
     8e4:	01 96       	adiw	r24, 0x01	; 1
     8e6:	01 97       	sbiw	r24, 0x01	; 1
     8e8:	e1 f7       	brne	.-8      	; 0x8e2 <BusyWaitMicroC__BusyWait__wait.part.72>
     8ea:	08 95       	ret

000008ec <SimpleArbiterP__1__Resource__request.constprop.161>:
     8ec:	cf 93       	push	r28
     8ee:	df 93       	push	r29
     8f0:	df b7       	in	r29, 0x3f	; 63
     8f2:	f8 94       	cli
     8f4:	c0 91 28 02 	lds	r28, 0x0228
     8f8:	c1 11       	cpse	r28, r1
     8fa:	09 c0       	rjmp	.+18     	; 0x90e <SimpleArbiterP__1__Resource__request.constprop.161+0x22>
     8fc:	81 e0       	ldi	r24, 0x01	; 1
     8fe:	80 93 28 02 	sts	0x0228, r24
     902:	10 92 09 02 	sts	0x0209, r1
     906:	8a e0       	ldi	r24, 0x0A	; 10
     908:	0e 94 01 02 	call	0x402	; 0x402 <SchedulerBasicP__TaskBasic__postTask>
     90c:	18 c0       	rjmp	.+48     	; 0x93e <SimpleArbiterP__1__Resource__request.constprop.161+0x52>
     90e:	80 91 ac 02 	lds	r24, 0x02AC
     912:	8f 3f       	cpi	r24, 0xFF	; 255
     914:	99 f4       	brne	.+38     	; 0x93c <SimpleArbiterP__1__Resource__request.constprop.161+0x50>
     916:	e0 91 0a 02 	lds	r30, 0x020A
     91a:	ee 23       	and	r30, r30
     91c:	79 f0       	breq	.+30     	; 0x93c <SimpleArbiterP__1__Resource__request.constprop.161+0x50>
     91e:	80 91 0b 02 	lds	r24, 0x020B
     922:	8f 3f       	cpi	r24, 0xFF	; 255
     924:	19 f4       	brne	.+6      	; 0x92c <SimpleArbiterP__1__Resource__request.constprop.161+0x40>
     926:	10 92 0b 02 	sts	0x020B, r1
     92a:	04 c0       	rjmp	.+8      	; 0x934 <SimpleArbiterP__1__Resource__request.constprop.161+0x48>
     92c:	f0 e0       	ldi	r31, 0x00	; 0
     92e:	e4 55       	subi	r30, 0x54	; 84
     930:	fd 4f       	sbci	r31, 0xFD	; 253
     932:	10 82       	st	Z, r1
     934:	10 92 0a 02 	sts	0x020A, r1
     938:	c0 e0       	ldi	r28, 0x00	; 0
     93a:	01 c0       	rjmp	.+2      	; 0x93e <SimpleArbiterP__1__Resource__request.constprop.161+0x52>
     93c:	c5 e0       	ldi	r28, 0x05	; 5
     93e:	df bf       	out	0x3f, r29	; 63
     940:	8c 2f       	mov	r24, r28
     942:	df 91       	pop	r29
     944:	cf 91       	pop	r28
     946:	08 95       	ret

00000948 <AdcP__sample>:
     948:	80 91 da 03 	lds	r24, 0x03DA
     94c:	88 23       	and	r24, r24
     94e:	19 f0       	breq	.+6      	; 0x956 <AdcP__sample+0xe>
     950:	80 e0       	ldi	r24, 0x00	; 0
     952:	9f e1       	ldi	r25, 0x1F	; 31
     954:	02 c0       	rjmp	.+4      	; 0x95a <AdcP__sample+0x12>
     956:	88 e0       	ldi	r24, 0x08	; 8
     958:	9e e1       	ldi	r25, 0x1E	; 30
     95a:	4f b7       	in	r20, 0x3f	; 63
     95c:	f8 94       	cli
     95e:	20 91 62 02 	lds	r18, 0x0262
     962:	2e 7f       	andi	r18, 0xFE	; 254
     964:	20 93 62 02 	sts	0x0262, r18
     968:	20 91 7c 00 	lds	r18, 0x007C
     96c:	32 2f       	mov	r19, r18
     96e:	3f 71       	andi	r19, 0x1F	; 31
     970:	22 95       	swap	r18
     972:	26 95       	lsr	r18
     974:	26 95       	lsr	r18
     976:	23 70       	andi	r18, 0x03	; 3
     978:	11 f4       	brne	.+4      	; 0x97e <AdcP__sample+0x36>
     97a:	21 e0       	ldi	r18, 0x01	; 1
     97c:	93 13       	cpse	r25, r19
     97e:	20 e0       	ldi	r18, 0x00	; 0
     980:	30 91 62 02 	lds	r19, 0x0262
     984:	20 fb       	bst	r18, 0
     986:	31 f9       	bld	r19, 1
     988:	9f 71       	andi	r25, 0x1F	; 31
     98a:	29 2f       	mov	r18, r25
     98c:	22 0f       	add	r18, r18
     98e:	22 0f       	add	r18, r18
     990:	33 78       	andi	r19, 0x83	; 131
     992:	32 2b       	or	r19, r18
     994:	30 93 62 02 	sts	0x0262, r19
     998:	90 93 7c 00 	sts	0x007C, r25
     99c:	20 91 62 02 	lds	r18, 0x0262
     9a0:	21 70       	andi	r18, 0x01	; 1
     9a2:	88 30       	cpi	r24, 0x08	; 8
     9a4:	19 f5       	brne	.+70     	; 0x9ec <AdcP__sample+0xa4>
     9a6:	80 91 d6 03 	lds	r24, 0x03D6
     9aa:	90 91 d7 03 	lds	r25, 0x03D7
     9ae:	86 38       	cpi	r24, 0x86	; 134
     9b0:	31 e0       	ldi	r19, 0x01	; 1
     9b2:	93 07       	cpc	r25, r19
     9b4:	80 f4       	brcc	.+32     	; 0x9d6 <AdcP__sample+0x8e>
     9b6:	83 3c       	cpi	r24, 0xC3	; 195
     9b8:	91 05       	cpc	r25, r1
     9ba:	78 f4       	brcc	.+30     	; 0x9da <AdcP__sample+0x92>
     9bc:	81 36       	cpi	r24, 0x61	; 97
     9be:	91 05       	cpc	r25, r1
     9c0:	70 f4       	brcc	.+28     	; 0x9de <AdcP__sample+0x96>
     9c2:	80 33       	cpi	r24, 0x30	; 48
     9c4:	91 05       	cpc	r25, r1
     9c6:	68 f4       	brcc	.+26     	; 0x9e2 <AdcP__sample+0x9a>
     9c8:	88 31       	cpi	r24, 0x18	; 24
     9ca:	91 05       	cpc	r25, r1
     9cc:	60 f4       	brcc	.+24     	; 0x9e6 <AdcP__sample+0x9e>
     9ce:	0c 97       	sbiw	r24, 0x0c	; 12
     9d0:	60 f4       	brcc	.+24     	; 0x9ea <AdcP__sample+0xa2>
     9d2:	80 e0       	ldi	r24, 0x00	; 0
     9d4:	0b c0       	rjmp	.+22     	; 0x9ec <AdcP__sample+0xa4>
     9d6:	87 e0       	ldi	r24, 0x07	; 7
     9d8:	09 c0       	rjmp	.+18     	; 0x9ec <AdcP__sample+0xa4>
     9da:	86 e0       	ldi	r24, 0x06	; 6
     9dc:	07 c0       	rjmp	.+14     	; 0x9ec <AdcP__sample+0xa4>
     9de:	85 e0       	ldi	r24, 0x05	; 5
     9e0:	05 c0       	rjmp	.+10     	; 0x9ec <AdcP__sample+0xa4>
     9e2:	84 e0       	ldi	r24, 0x04	; 4
     9e4:	03 c0       	rjmp	.+6      	; 0x9ec <AdcP__sample+0xa4>
     9e6:	83 e0       	ldi	r24, 0x03	; 3
     9e8:	01 c0       	rjmp	.+2      	; 0x9ec <AdcP__sample+0xa4>
     9ea:	82 e0       	ldi	r24, 0x02	; 2
     9ec:	87 70       	andi	r24, 0x07	; 7
     9ee:	88 60       	ori	r24, 0x08	; 8
     9f0:	80 61       	ori	r24, 0x10	; 16
     9f2:	20 fb       	bst	r18, 0
     9f4:	85 f9       	bld	r24, 5
     9f6:	80 64       	ori	r24, 0x40	; 64
     9f8:	80 68       	ori	r24, 0x80	; 128
     9fa:	80 93 7a 00 	sts	0x007A, r24
     9fe:	4f bf       	out	0x3f, r20	; 63
     a00:	08 95       	ret

00000a02 <AutoResourceAcquireLayerC__0__Resource__release>:
     a02:	cf 93       	push	r28
     a04:	df 93       	push	r29
     a06:	df b7       	in	r29, 0x3f	; 63
     a08:	f8 94       	cli
     a0a:	80 91 29 02 	lds	r24, 0x0229
     a0e:	82 30       	cpi	r24, 0x02	; 2
     a10:	19 f5       	brne	.+70     	; 0xa58 <AutoResourceAcquireLayerC__0__Resource__release+0x56>
     a12:	c0 91 0c 02 	lds	r28, 0x020C
     a16:	c1 11       	cpse	r28, r1
     a18:	1f c0       	rjmp	.+62     	; 0xa58 <AutoResourceAcquireLayerC__0__Resource__release+0x56>
     a1a:	90 91 0e 02 	lds	r25, 0x020E
     a1e:	9f 3f       	cpi	r25, 0xFF	; 255
     a20:	a9 f0       	breq	.+42     	; 0xa4c <AutoResourceAcquireLayerC__0__Resource__release+0x4a>
     a22:	e9 2f       	mov	r30, r25
     a24:	f0 e0       	ldi	r31, 0x00	; 0
     a26:	ea 59       	subi	r30, 0x9A	; 154
     a28:	fd 4f       	sbci	r31, 0xFD	; 253
     a2a:	80 81       	ld	r24, Z
     a2c:	80 93 0e 02 	sts	0x020E, r24
     a30:	8f 3f       	cpi	r24, 0xFF	; 255
     a32:	11 f4       	brne	.+4      	; 0xa38 <AutoResourceAcquireLayerC__0__Resource__release+0x36>
     a34:	80 93 0d 02 	sts	0x020D, r24
     a38:	8f ef       	ldi	r24, 0xFF	; 255
     a3a:	80 83       	st	Z, r24
     a3c:	90 93 0c 02 	sts	0x020C, r25
     a40:	81 e0       	ldi	r24, 0x01	; 1
     a42:	80 93 29 02 	sts	0x0229, r24
     a46:	0e 94 01 02 	call	0x402	; 0x402 <SchedulerBasicP__TaskBasic__postTask>
     a4a:	04 c0       	rjmp	.+8      	; 0xa54 <AutoResourceAcquireLayerC__0__Resource__release+0x52>
     a4c:	90 93 0c 02 	sts	0x020C, r25
     a50:	10 92 29 02 	sts	0x0229, r1
     a54:	df bf       	out	0x3f, r29	; 63
     a56:	02 c0       	rjmp	.+4      	; 0xa5c <AutoResourceAcquireLayerC__0__Resource__release+0x5a>
     a58:	df bf       	out	0x3f, r29	; 63
     a5a:	c1 e0       	ldi	r28, 0x01	; 1
     a5c:	8c 2f       	mov	r24, r28
     a5e:	df 91       	pop	r29
     a60:	cf 91       	pop	r28
     a62:	08 95       	ret

00000a64 <InterferenceC__AMSend__sendDone.isra.125>:
     a64:	81 11       	cpse	r24, r1
     a66:	08 c0       	rjmp	.+16     	; 0xa78 <InterferenceC__AMSend__sendDone.isra.125+0x14>
     a68:	9f b7       	in	r25, 0x3f	; 63
     a6a:	f8 94       	cli
     a6c:	22 b1       	in	r18, 0x02	; 2
     a6e:	82 e0       	ldi	r24, 0x02	; 2
     a70:	82 27       	eor	r24, r18
     a72:	82 b9       	out	0x02, r24	; 2
     a74:	9f bf       	out	0x3f, r25	; 63
     a76:	02 c0       	rjmp	.+4      	; 0xa7c <InterferenceC__AMSend__sendDone.isra.125+0x18>
     a78:	0e 94 47 02 	call	0x48e	; 0x48e <HplAtm128GeneralIOPinP__2__IO__toggle>
     a7c:	10 92 6e 04 	sts	0x046E, r1
     a80:	9f b7       	in	r25, 0x3f	; 63
     a82:	f8 94       	cli
     a84:	80 91 2a 02 	lds	r24, 0x022A
     a88:	8f 5f       	subi	r24, 0xFF	; 255
     a8a:	80 93 2a 02 	sts	0x022A, r24
     a8e:	9f bf       	out	0x3f, r25	; 63
     a90:	80 91 2a 02 	lds	r24, 0x022A
     a94:	85 30       	cpi	r24, 0x05	; 5
     a96:	10 f4       	brcc	.+4      	; 0xa9c <InterferenceC__AMSend__sendDone.isra.125+0x38>
     a98:	80 e0       	ldi	r24, 0x00	; 0
     a9a:	23 c0       	rjmp	.+70     	; 0xae2 <InterferenceC__AMSend__sendDone.isra.125+0x7e>
     a9c:	10 92 2a 02 	sts	0x022A, r1
     aa0:	10 92 6e 04 	sts	0x046E, r1
     aa4:	0e 94 47 02 	call	0x48e	; 0x48e <HplAtm128GeneralIOPinP__2__IO__toggle>
     aa8:	0e 94 4f 02 	call	0x49e	; 0x49e <Atm1281AlarmAsyncP__0__Counter__get>
     aac:	60 93 49 03 	sts	0x0349, r22
     ab0:	70 93 4a 03 	sts	0x034A, r23
     ab4:	80 93 4b 03 	sts	0x034B, r24
     ab8:	90 93 4c 03 	sts	0x034C, r25
     abc:	80 e1       	ldi	r24, 0x10	; 16
     abe:	94 ea       	ldi	r25, 0xA4	; 164
     ac0:	a0 e0       	ldi	r26, 0x00	; 0
     ac2:	b0 e0       	ldi	r27, 0x00	; 0
     ac4:	80 93 4d 03 	sts	0x034D, r24
     ac8:	90 93 4e 03 	sts	0x034E, r25
     acc:	a0 93 4f 03 	sts	0x034F, r26
     ad0:	b0 93 50 03 	sts	0x0350, r27
     ad4:	80 91 51 03 	lds	r24, 0x0351
     ad8:	81 60       	ori	r24, 0x01	; 1
     ada:	82 60       	ori	r24, 0x02	; 2
     adc:	80 93 51 03 	sts	0x0351, r24
     ae0:	87 e0       	ldi	r24, 0x07	; 7
     ae2:	0c 94 01 02 	jmp	0x402	; 0x402 <SchedulerBasicP__TaskBasic__postTask>

00000ae6 <RF230DriverLayerP__SpiResource__release>:
     ae6:	cf 93       	push	r28
     ae8:	df 93       	push	r29
     aea:	df b7       	in	r29, 0x3f	; 63
     aec:	f8 94       	cli
     aee:	80 91 28 02 	lds	r24, 0x0228
     af2:	82 30       	cpi	r24, 0x02	; 2
     af4:	39 f5       	brne	.+78     	; 0xb44 <RF230DriverLayerP__SpiResource__release+0x5e>
     af6:	c0 91 09 02 	lds	r28, 0x0209
     afa:	c1 11       	cpse	r28, r1
     afc:	23 c0       	rjmp	.+70     	; 0xb44 <RF230DriverLayerP__SpiResource__release+0x5e>
     afe:	90 91 0b 02 	lds	r25, 0x020B
     b02:	9f 3f       	cpi	r25, 0xFF	; 255
     b04:	b1 f0       	breq	.+44     	; 0xb32 <RF230DriverLayerP__SpiResource__release+0x4c>
     b06:	e9 2f       	mov	r30, r25
     b08:	f0 e0       	ldi	r31, 0x00	; 0
     b0a:	e4 55       	subi	r30, 0x54	; 84
     b0c:	fd 4f       	sbci	r31, 0xFD	; 253
     b0e:	80 81       	ld	r24, Z
     b10:	80 93 0b 02 	sts	0x020B, r24
     b14:	8f 3f       	cpi	r24, 0xFF	; 255
     b16:	11 f4       	brne	.+4      	; 0xb1c <RF230DriverLayerP__SpiResource__release+0x36>
     b18:	80 93 0a 02 	sts	0x020A, r24
     b1c:	8f ef       	ldi	r24, 0xFF	; 255
     b1e:	80 83       	st	Z, r24
     b20:	90 93 09 02 	sts	0x0209, r25
     b24:	81 e0       	ldi	r24, 0x01	; 1
     b26:	80 93 28 02 	sts	0x0228, r24
     b2a:	8a e0       	ldi	r24, 0x0A	; 10
     b2c:	0e 94 01 02 	call	0x402	; 0x402 <SchedulerBasicP__TaskBasic__postTask>
     b30:	04 c0       	rjmp	.+8      	; 0xb3a <RF230DriverLayerP__SpiResource__release+0x54>
     b32:	90 93 09 02 	sts	0x0209, r25
     b36:	10 92 28 02 	sts	0x0228, r1
     b3a:	8c b5       	in	r24, 0x2c	; 44
     b3c:	8f 7b       	andi	r24, 0xBF	; 191
     b3e:	8c bd       	out	0x2c, r24	; 44
     b40:	df bf       	out	0x3f, r29	; 63
     b42:	02 c0       	rjmp	.+4      	; 0xb48 <RF230DriverLayerP__SpiResource__release+0x62>
     b44:	df bf       	out	0x3f, r29	; 63
     b46:	c1 e0       	ldi	r28, 0x01	; 1
     b48:	8c 2f       	mov	r24, r28
     b4a:	df 91       	pop	r29
     b4c:	cf 91       	pop	r28
     b4e:	08 95       	ret

00000b50 <Atm1281AlarmAsyncP__0__setInterrupt>:
     b50:	cf 92       	push	r12
     b52:	df 92       	push	r13
     b54:	ef 92       	push	r14
     b56:	ff 92       	push	r15
     b58:	0f 93       	push	r16
     b5a:	1f 93       	push	r17
     b5c:	cf 93       	push	r28
     b5e:	cf b7       	in	r28, 0x3f	; 63
     b60:	f8 94       	cli
     b62:	20 91 b3 00 	lds	r18, 0x00B3
     b66:	90 91 b2 00 	lds	r25, 0x00B2
     b6a:	87 b3       	in	r24, 0x17	; 23
     b6c:	29 17       	cp	r18, r25
     b6e:	11 f0       	breq	.+4      	; 0xb74 <Atm1281AlarmAsyncP__0__setInterrupt+0x24>
     b70:	81 ff       	sbrs	r24, 1
     b72:	02 c0       	rjmp	.+4      	; 0xb78 <Atm1281AlarmAsyncP__0__setInterrupt+0x28>
     b74:	cf bf       	out	0x3f, r28	; 63
     b76:	7c c0       	rjmp	.+248    	; 0xc70 <Atm1281AlarmAsyncP__0__setInterrupt+0x120>
     b78:	80 91 a1 02 	lds	r24, 0x02A1
     b7c:	81 11       	cpse	r24, r1
     b7e:	02 c0       	rjmp	.+4      	; 0xb84 <Atm1281AlarmAsyncP__0__setInterrupt+0x34>
     b80:	86 ee       	ldi	r24, 0xE6	; 230
     b82:	3f c0       	rjmp	.+126    	; 0xc02 <Atm1281AlarmAsyncP__0__setInterrupt+0xb2>
     b84:	0e 94 4f 02 	call	0x49e	; 0x49e <Atm1281AlarmAsyncP__0__Counter__get>
     b88:	c0 90 35 02 	lds	r12, 0x0235
     b8c:	d0 90 36 02 	lds	r13, 0x0236
     b90:	e0 90 37 02 	lds	r14, 0x0237
     b94:	f0 90 38 02 	lds	r15, 0x0238
     b98:	00 91 dc 03 	lds	r16, 0x03DC
     b9c:	10 91 dd 03 	lds	r17, 0x03DD
     ba0:	20 91 de 03 	lds	r18, 0x03DE
     ba4:	30 91 df 03 	lds	r19, 0x03DF
     ba8:	ab 01       	movw	r20, r22
     baa:	bc 01       	movw	r22, r24
     bac:	4c 19       	sub	r20, r12
     bae:	5d 09       	sbc	r21, r13
     bb0:	6e 09       	sbc	r22, r14
     bb2:	7f 09       	sbc	r23, r15
     bb4:	40 17       	cp	r20, r16
     bb6:	51 07       	cpc	r21, r17
     bb8:	62 07       	cpc	r22, r18
     bba:	73 07       	cpc	r23, r19
     bbc:	28 f0       	brcs	.+10     	; 0xbc8 <Atm1281AlarmAsyncP__0__setInterrupt+0x78>
     bbe:	10 92 a1 02 	sts	0x02A1, r1
     bc2:	86 ee       	ldi	r24, 0xE6	; 230
     bc4:	91 e0       	ldi	r25, 0x01	; 1
     bc6:	1e c0       	rjmp	.+60     	; 0xc04 <Atm1281AlarmAsyncP__0__setInterrupt+0xb4>
     bc8:	d9 01       	movw	r26, r18
     bca:	c8 01       	movw	r24, r16
     bcc:	8c 0d       	add	r24, r12
     bce:	9d 1d       	adc	r25, r13
     bd0:	ae 1d       	adc	r26, r14
     bd2:	bf 1d       	adc	r27, r15
     bd4:	40 91 42 02 	lds	r20, 0x0242
     bd8:	50 91 43 02 	lds	r21, 0x0243
     bdc:	60 91 44 02 	lds	r22, 0x0244
     be0:	70 91 45 02 	lds	r23, 0x0245
     be4:	84 1b       	sub	r24, r20
     be6:	95 0b       	sbc	r25, r21
     be8:	a6 0b       	sbc	r26, r22
     bea:	b7 0b       	sbc	r27, r23
     bec:	87 3e       	cpi	r24, 0xE7	; 231
     bee:	91 05       	cpc	r25, r1
     bf0:	a1 05       	cpc	r26, r1
     bf2:	b1 05       	cpc	r27, r1
     bf4:	28 f6       	brcc	.-118    	; 0xb80 <Atm1281AlarmAsyncP__0__setInterrupt+0x30>
     bf6:	82 30       	cpi	r24, 0x02	; 2
     bf8:	91 05       	cpc	r25, r1
     bfa:	a1 05       	cpc	r26, r1
     bfc:	b1 05       	cpc	r27, r1
     bfe:	08 f4       	brcc	.+2      	; 0xc02 <Atm1281AlarmAsyncP__0__setInterrupt+0xb2>
     c00:	82 e0       	ldi	r24, 0x02	; 2
     c02:	90 e0       	ldi	r25, 0x00	; 0
     c04:	2f ef       	ldi	r18, 0xFF	; 255
     c06:	28 0f       	add	r18, r24
     c08:	30 91 b6 00 	lds	r19, 0x00B6
     c0c:	33 fd       	sbrc	r19, 3
     c0e:	fc cf       	rjmp	.-8      	; 0xc08 <Atm1281AlarmAsyncP__0__setInterrupt+0xb8>
     c10:	30 91 b2 00 	lds	r19, 0x00B2
     c14:	23 13       	cpse	r18, r19
     c16:	82 2f       	mov	r24, r18
     c18:	40 91 42 02 	lds	r20, 0x0242
     c1c:	50 91 43 02 	lds	r21, 0x0243
     c20:	60 91 44 02 	lds	r22, 0x0244
     c24:	70 91 45 02 	lds	r23, 0x0245
     c28:	8a 01       	movw	r16, r20
     c2a:	9b 01       	movw	r18, r22
     c2c:	0f 5f       	subi	r16, 0xFF	; 255
     c2e:	1f 4f       	sbci	r17, 0xFF	; 255
     c30:	2f 4f       	sbci	r18, 0xFF	; 255
     c32:	3f 4f       	sbci	r19, 0xFF	; 255
     c34:	08 0f       	add	r16, r24
     c36:	11 1d       	adc	r17, r1
     c38:	21 1d       	adc	r18, r1
     c3a:	31 1d       	adc	r19, r1
     c3c:	04 17       	cp	r16, r20
     c3e:	15 07       	cpc	r17, r21
     c40:	26 07       	cpc	r18, r22
     c42:	37 07       	cpc	r19, r23
     c44:	10 f4       	brcc	.+4      	; 0xc4a <Atm1281AlarmAsyncP__0__setInterrupt+0xfa>
     c46:	84 2f       	mov	r24, r20
     c48:	80 95       	com	r24
     c4a:	20 91 b6 00 	lds	r18, 0x00B6
     c4e:	23 fd       	sbrc	r18, 3
     c50:	fc cf       	rjmp	.-8      	; 0xc4a <Atm1281AlarmAsyncP__0__setInterrupt+0xfa>
     c52:	80 93 b3 00 	sts	0x00B3, r24
     c56:	cf bf       	out	0x3f, r28	; 63
     c58:	99 23       	and	r25, r25
     c5a:	51 f0       	breq	.+20     	; 0xc70 <Atm1281AlarmAsyncP__0__setInterrupt+0x120>
     c5c:	86 e0       	ldi	r24, 0x06	; 6
     c5e:	cf 91       	pop	r28
     c60:	1f 91       	pop	r17
     c62:	0f 91       	pop	r16
     c64:	ff 90       	pop	r15
     c66:	ef 90       	pop	r14
     c68:	df 90       	pop	r13
     c6a:	cf 90       	pop	r12
     c6c:	0c 94 01 02 	jmp	0x402	; 0x402 <SchedulerBasicP__TaskBasic__postTask>
     c70:	cf 91       	pop	r28
     c72:	1f 91       	pop	r17
     c74:	0f 91       	pop	r16
     c76:	ff 90       	pop	r15
     c78:	ef 90       	pop	r14
     c7a:	df 90       	pop	r13
     c7c:	cf 90       	pop	r12
     c7e:	08 95       	ret

00000c80 <RF230DriverLayerP__readRegister>:
     c80:	cf 93       	push	r28
     c82:	df 93       	push	r29
     c84:	1f 92       	push	r1
     c86:	cd b7       	in	r28, 0x3d	; 61
     c88:	de b7       	in	r29, 0x3e	; 62
     c8a:	89 83       	std	Y+1, r24	; 0x01
     c8c:	0e 94 c0 01 	call	0x380	; 0x380 <HplAtm128GeneralIOPinP__8__IO__clr>
     c90:	89 81       	ldd	r24, Y+1	; 0x01
     c92:	80 68       	ori	r24, 0x80	; 128
     c94:	8e bd       	out	0x2e, r24	; 46
     c96:	80 e0       	ldi	r24, 0x00	; 0
     c98:	0e 94 b9 01 	call	0x372	; 0x372 <Atm128SpiP__FastSpiByte__splitReadWrite>
     c9c:	0e 94 b4 01 	call	0x368	; 0x368 <Atm128SpiP__FastSpiByte__splitRead>
     ca0:	89 83       	std	Y+1, r24	; 0x01
     ca2:	0e 94 a9 01 	call	0x352	; 0x352 <HplAtm128GeneralIOPinP__8__IO__set>
     ca6:	89 81       	ldd	r24, Y+1	; 0x01
     ca8:	0f 90       	pop	r0
     caa:	df 91       	pop	r29
     cac:	cf 91       	pop	r28
     cae:	08 95       	ret

00000cb0 <RF230DriverLayerP__writeRegister>:
     cb0:	1f 93       	push	r17
     cb2:	cf 93       	push	r28
     cb4:	df 93       	push	r29
     cb6:	1f 92       	push	r1
     cb8:	cd b7       	in	r28, 0x3d	; 61
     cba:	de b7       	in	r29, 0x3e	; 62
     cbc:	18 2f       	mov	r17, r24
     cbe:	69 83       	std	Y+1, r22	; 0x01
     cc0:	0e 94 c0 01 	call	0x380	; 0x380 <HplAtm128GeneralIOPinP__8__IO__clr>
     cc4:	91 2f       	mov	r25, r17
     cc6:	90 6c       	ori	r25, 0xC0	; 192
     cc8:	9e bd       	out	0x2e, r25	; 46
     cca:	89 81       	ldd	r24, Y+1	; 0x01
     ccc:	0e 94 b9 01 	call	0x372	; 0x372 <Atm128SpiP__FastSpiByte__splitReadWrite>
     cd0:	0e 94 b4 01 	call	0x368	; 0x368 <Atm128SpiP__FastSpiByte__splitRead>
     cd4:	0f 90       	pop	r0
     cd6:	df 91       	pop	r29
     cd8:	cf 91       	pop	r28
     cda:	1f 91       	pop	r17
     cdc:	0c 94 a9 01 	jmp	0x352	; 0x352 <HplAtm128GeneralIOPinP__8__IO__set>

00000ce0 <Atm128SpiP__startSpi>:
     ce0:	8c b5       	in	r24, 0x2c	; 44
     ce2:	8f 7b       	andi	r24, 0xBF	; 191
     ce4:	8c bd       	out	0x2c, r24	; 44
     ce6:	22 9a       	sbi	0x04, 2	; 4
     ce8:	23 98       	cbi	0x04, 3	; 4
     cea:	21 9a       	sbi	0x04, 1	; 4
     cec:	20 9a       	sbi	0x04, 0	; 4
     cee:	8c b5       	in	r24, 0x2c	; 44
     cf0:	80 61       	ori	r24, 0x10	; 16
     cf2:	8c bd       	out	0x2c, r24	; 44
     cf4:	8c b5       	in	r24, 0x2c	; 44
     cf6:	8f 77       	andi	r24, 0x7F	; 127
     cf8:	8c bd       	out	0x2c, r24	; 44
     cfa:	8c b5       	in	r24, 0x2c	; 44
     cfc:	87 7f       	andi	r24, 0xF7	; 247
     cfe:	8c bd       	out	0x2c, r24	; 44
     d00:	8c b5       	in	r24, 0x2c	; 44
     d02:	8b 7f       	andi	r24, 0xFB	; 251
     d04:	8c bd       	out	0x2c, r24	; 44
     d06:	8c b5       	in	r24, 0x2c	; 44
     d08:	80 64       	ori	r24, 0x40	; 64
     d0a:	8c bd       	out	0x2c, r24	; 44
     d0c:	8d b5       	in	r24, 0x2d	; 45
     d0e:	81 60       	ori	r24, 0x01	; 1
     d10:	8d bd       	out	0x2d, r24	; 45
     d12:	8c b5       	in	r24, 0x2c	; 44
     d14:	8c 7f       	andi	r24, 0xFC	; 252
     d16:	8c bd       	out	0x2c, r24	; 44
     d18:	08 95       	ret

00000d1a <Ieee154PacketLayerP__0__Ieee154PacketLayer__requiresAckReply>:
     d1a:	cf 93       	push	r28
     d1c:	df 93       	push	r29
     d1e:	fc 01       	movw	r30, r24
     d20:	22 81       	ldd	r18, Z+2	; 0x02
     d22:	30 e0       	ldi	r19, 0x00	; 0
     d24:	32 2f       	mov	r19, r18
     d26:	22 27       	eor	r18, r18
     d28:	41 81       	ldd	r20, Z+1	; 0x01
     d2a:	24 2b       	or	r18, r20
     d2c:	25 ff       	sbrs	r18, 5
     d2e:	15 c0       	rjmp	.+42     	; 0xd5a <Ieee154PacketLayerP__0__Ieee154PacketLayer__requiresAckReply+0x40>
     d30:	27 74       	andi	r18, 0x47	; 71
     d32:	3c 7c       	andi	r19, 0xCC	; 204
     d34:	21 34       	cpi	r18, 0x41	; 65
     d36:	38 48       	sbci	r19, 0x88	; 136
     d38:	81 f4       	brne	.+32     	; 0xd5a <Ieee154PacketLayerP__0__Ieee154PacketLayer__requiresAckReply+0x40>
     d3a:	fc 01       	movw	r30, r24
     d3c:	c7 81       	ldd	r28, Z+7	; 0x07
     d3e:	d0 e0       	ldi	r29, 0x00	; 0
     d40:	dc 2f       	mov	r29, r28
     d42:	cc 27       	eor	r28, r28
     d44:	86 81       	ldd	r24, Z+6	; 0x06
     d46:	c8 2b       	or	r28, r24
     d48:	0e 94 70 02 	call	0x4e0	; 0x4e0 <ActiveMessageAddressC__amAddress>
     d4c:	21 e0       	ldi	r18, 0x01	; 1
     d4e:	c8 17       	cp	r28, r24
     d50:	d9 07       	cpc	r29, r25
     d52:	09 f0       	breq	.+2      	; 0xd56 <Ieee154PacketLayerP__0__Ieee154PacketLayer__requiresAckReply+0x3c>
     d54:	20 e0       	ldi	r18, 0x00	; 0
     d56:	82 2f       	mov	r24, r18
     d58:	01 c0       	rjmp	.+2      	; 0xd5c <Ieee154PacketLayerP__0__Ieee154PacketLayer__requiresAckReply+0x42>
     d5a:	80 e0       	ldi	r24, 0x00	; 0
     d5c:	df 91       	pop	r29
     d5e:	cf 91       	pop	r28
     d60:	08 95       	ret

00000d62 <RF230DriverLayerP__isSpiAcquired>:
     d62:	cf 93       	push	r28
     d64:	8f b7       	in	r24, 0x3f	; 63
     d66:	f8 94       	cli
     d68:	90 91 09 02 	lds	r25, 0x0209
     d6c:	91 11       	cpse	r25, r1
     d6e:	06 c0       	rjmp	.+12     	; 0xd7c <RF230DriverLayerP__isSpiAcquired+0x1a>
     d70:	90 91 28 02 	lds	r25, 0x0228
     d74:	92 30       	cpi	r25, 0x02	; 2
     d76:	11 f4       	brne	.+4      	; 0xd7c <RF230DriverLayerP__isSpiAcquired+0x1a>
     d78:	8f bf       	out	0x3f, r24	; 63
     d7a:	0f c0       	rjmp	.+30     	; 0xd9a <RF230DriverLayerP__isSpiAcquired+0x38>
     d7c:	8f bf       	out	0x3f, r24	; 63
     d7e:	cf b7       	in	r28, 0x3f	; 63
     d80:	f8 94       	cli
     d82:	80 91 28 02 	lds	r24, 0x0228
     d86:	81 11       	cpse	r24, r1
     d88:	0a c0       	rjmp	.+20     	; 0xd9e <RF230DriverLayerP__isSpiAcquired+0x3c>
     d8a:	82 e0       	ldi	r24, 0x02	; 2
     d8c:	80 93 28 02 	sts	0x0228, r24
     d90:	10 92 09 02 	sts	0x0209, r1
     d94:	0e 94 70 06 	call	0xce0	; 0xce0 <Atm128SpiP__startSpi>
     d98:	cf bf       	out	0x3f, r28	; 63
     d9a:	81 e0       	ldi	r24, 0x01	; 1
     d9c:	04 c0       	rjmp	.+8      	; 0xda6 <RF230DriverLayerP__isSpiAcquired+0x44>
     d9e:	cf bf       	out	0x3f, r28	; 63
     da0:	0e 94 76 04 	call	0x8ec	; 0x8ec <SimpleArbiterP__1__Resource__request.constprop.161>
     da4:	80 e0       	ldi	r24, 0x00	; 0
     da6:	cf 91       	pop	r28
     da8:	08 95       	ret

00000daa <Atm128UartP__0__UartStream__send.constprop.174>:
     daa:	80 91 ae 02 	lds	r24, 0x02AE
     dae:	90 91 af 02 	lds	r25, 0x02AF
     db2:	89 2b       	or	r24, r25
     db4:	c1 f5       	brne	.+112    	; 0xe26 <Atm128UartP__0__UartStream__send.constprop.174+0x7c>
     db6:	81 e0       	ldi	r24, 0x01	; 1
     db8:	90 e0       	ldi	r25, 0x00	; 0
     dba:	90 93 cf 03 	sts	0x03CF, r25
     dbe:	80 93 ce 03 	sts	0x03CE, r24
     dc2:	80 e6       	ldi	r24, 0x60	; 96
     dc4:	92 e0       	ldi	r25, 0x02	; 2
     dc6:	90 93 af 02 	sts	0x02AF, r25
     dca:	80 93 ae 02 	sts	0x02AE, r24
     dce:	10 92 9e 02 	sts	0x029E, r1
     dd2:	10 92 9d 02 	sts	0x029D, r1
     dd6:	81 e0       	ldi	r24, 0x01	; 1
     dd8:	80 93 9f 02 	sts	0x029F, r24
     ddc:	80 91 c0 00 	lds	r24, 0x00C0
     de0:	80 64       	ori	r24, 0x40	; 64
     de2:	80 93 c0 00 	sts	0x00C0, r24
     de6:	80 91 c1 00 	lds	r24, 0x00C1
     dea:	80 64       	ori	r24, 0x40	; 64
     dec:	80 93 c1 00 	sts	0x00C1, r24
     df0:	80 91 9d 02 	lds	r24, 0x029D
     df4:	90 91 9e 02 	lds	r25, 0x029E
     df8:	9c 01       	movw	r18, r24
     dfa:	2f 5f       	subi	r18, 0xFF	; 255
     dfc:	3f 4f       	sbci	r19, 0xFF	; 255
     dfe:	30 93 9e 02 	sts	0x029E, r19
     e02:	20 93 9d 02 	sts	0x029D, r18
     e06:	fc 01       	movw	r30, r24
     e08:	e0 5a       	subi	r30, 0xA0	; 160
     e0a:	fd 4f       	sbci	r31, 0xFD	; 253
     e0c:	80 81       	ld	r24, Z
     e0e:	9f b7       	in	r25, 0x3f	; 63
     e10:	f8 94       	cli
     e12:	80 93 c6 00 	sts	0x00C6, r24
     e16:	80 91 c0 00 	lds	r24, 0x00C0
     e1a:	80 64       	ori	r24, 0x40	; 64
     e1c:	80 93 c0 00 	sts	0x00C0, r24
     e20:	9f bf       	out	0x3f, r25	; 63
     e22:	80 e0       	ldi	r24, 0x00	; 0
     e24:	08 95       	ret
     e26:	85 e0       	ldi	r24, 0x05	; 5
     e28:	08 95       	ret

00000e2a <HdlcTranslateC__SerialFrameComm__putData>:
     e2a:	93 e8       	ldi	r25, 0x83	; 131
     e2c:	98 0f       	add	r25, r24
     e2e:	92 30       	cpi	r25, 0x02	; 2
     e30:	50 f4       	brcc	.+20     	; 0xe46 <HdlcTranslateC__SerialFrameComm__putData+0x1c>
     e32:	90 91 14 02 	lds	r25, 0x0214
     e36:	91 60       	ori	r25, 0x01	; 1
     e38:	90 93 14 02 	sts	0x0214, r25
     e3c:	90 e2       	ldi	r25, 0x20	; 32
     e3e:	89 27       	eor	r24, r25
     e40:	80 93 bc 03 	sts	0x03BC, r24
     e44:	8d e7       	ldi	r24, 0x7D	; 125
     e46:	80 93 60 02 	sts	0x0260, r24
     e4a:	0c 94 d5 06 	jmp	0xdaa	; 0xdaa <Atm128UartP__0__UartStream__send.constprop.174>

00000e4e <HdlcTranslateC__SerialFrameComm__putDelimiter>:
     e4e:	9f b7       	in	r25, 0x3f	; 63
     e50:	f8 94       	cli
     e52:	80 91 14 02 	lds	r24, 0x0214
     e56:	8e 7f       	andi	r24, 0xFE	; 254
     e58:	80 93 14 02 	sts	0x0214, r24
     e5c:	8e e7       	ldi	r24, 0x7E	; 126
     e5e:	80 93 60 02 	sts	0x0260, r24
     e62:	9f bf       	out	0x3f, r25	; 63
     e64:	0c 94 d5 06 	jmp	0xdaa	; 0xdaa <Atm128UartP__0__UartStream__send.constprop.174>

00000e68 <RF230DriverLayerP__RadioSend__send>:
     e68:	2f 92       	push	r2
     e6a:	3f 92       	push	r3
     e6c:	4f 92       	push	r4
     e6e:	5f 92       	push	r5
     e70:	6f 92       	push	r6
     e72:	7f 92       	push	r7
     e74:	af 92       	push	r10
     e76:	bf 92       	push	r11
     e78:	cf 92       	push	r12
     e7a:	df 92       	push	r13
     e7c:	ef 92       	push	r14
     e7e:	ff 92       	push	r15
     e80:	0f 93       	push	r16
     e82:	1f 93       	push	r17
     e84:	cf 93       	push	r28
     e86:	df 93       	push	r29
     e88:	20 91 2c 02 	lds	r18, 0x022C
     e8c:	22 23       	and	r18, r18
     e8e:	11 f0       	breq	.+4      	; 0xe94 <RF230DriverLayerP__RadioSend__send+0x2c>
     e90:	15 e0       	ldi	r17, 0x05	; 5
     e92:	de c0       	rjmp	.+444    	; 0x1050 <RF230DriverLayerP__RadioSend__send+0x1e8>
     e94:	10 91 71 04 	lds	r17, 0x0471
     e98:	15 30       	cpi	r17, 0x05	; 5
     e9a:	d1 f7       	brne	.-12     	; 0xe90 <RF230DriverLayerP__RadioSend__send+0x28>
     e9c:	20 91 cb 03 	lds	r18, 0x03CB
     ea0:	21 11       	cpse	r18, r1
     ea2:	f6 cf       	rjmp	.-20     	; 0xe90 <RF230DriverLayerP__RadioSend__send+0x28>
     ea4:	ec 01       	movw	r28, r24
     ea6:	0e 94 b1 06 	call	0xd62	; 0xd62 <RF230DriverLayerP__isSpiAcquired>
     eaa:	88 23       	and	r24, r24
     eac:	89 f3       	breq	.-30     	; 0xe90 <RF230DriverLayerP__RadioSend__send+0x28>
     eae:	8c a5       	ldd	r24, Y+44	; 0x2c
     eb0:	82 ff       	sbrs	r24, 2
     eb2:	03 c0       	rjmp	.+6      	; 0xeba <RF230DriverLayerP__RadioSend__send+0x52>
     eb4:	6e a5       	ldd	r22, Y+46	; 0x2e
     eb6:	6f 70       	andi	r22, 0x0F	; 15
     eb8:	01 c0       	rjmp	.+2      	; 0xebc <RF230DriverLayerP__RadioSend__send+0x54>
     eba:	60 e0       	ldi	r22, 0x00	; 0
     ebc:	80 91 e5 02 	lds	r24, 0x02E5
     ec0:	68 17       	cp	r22, r24
     ec2:	31 f0       	breq	.+12     	; 0xed0 <RF230DriverLayerP__RadioSend__send+0x68>
     ec4:	60 93 e5 02 	sts	0x02E5, r22
     ec8:	60 68       	ori	r22, 0x80	; 128
     eca:	85 e0       	ldi	r24, 0x05	; 5
     ecc:	0e 94 58 06 	call	0xcb0	; 0xcb0 <RF230DriverLayerP__writeRegister>
     ed0:	2a 81       	ldd	r18, Y+2	; 0x02
     ed2:	30 e0       	ldi	r19, 0x00	; 0
     ed4:	32 2f       	mov	r19, r18
     ed6:	22 27       	eor	r18, r18
     ed8:	89 81       	ldd	r24, Y+1	; 0x01
     eda:	28 2b       	or	r18, r24
     edc:	27 74       	andi	r18, 0x47	; 71
     ede:	3c 7c       	andi	r19, 0xCC	; 204
     ee0:	21 34       	cpi	r18, 0x41	; 65
     ee2:	38 48       	sbci	r19, 0x88	; 136
     ee4:	a1 f4       	brne	.+40     	; 0xf0e <RF230DriverLayerP__RadioSend__send+0xa6>
     ee6:	86 e0       	ldi	r24, 0x06	; 6
     ee8:	0e 94 40 06 	call	0xc80	; 0xc80 <RF230DriverLayerP__readRegister>
     eec:	8f 71       	andi	r24, 0x1F	; 31
     eee:	90 e0       	ldi	r25, 0x00	; 0
     ef0:	40 91 a6 02 	lds	r20, 0x02A6
     ef4:	20 91 96 02 	lds	r18, 0x0296
     ef8:	30 e0       	ldi	r19, 0x00	; 0
     efa:	24 0f       	add	r18, r20
     efc:	31 1d       	adc	r19, r1
     efe:	43 e0       	ldi	r20, 0x03	; 3
     f00:	35 95       	asr	r19
     f02:	27 95       	ror	r18
     f04:	4a 95       	dec	r20
     f06:	e1 f7       	brne	.-8      	; 0xf00 <RF230DriverLayerP__RadioSend__send+0x98>
     f08:	28 17       	cp	r18, r24
     f0a:	39 07       	cpc	r19, r25
     f0c:	44 f1       	brlt	.+80     	; 0xf5e <RF230DriverLayerP__RadioSend__send+0xf6>
     f0e:	69 e0       	ldi	r22, 0x09	; 9
     f10:	82 e0       	ldi	r24, 0x02	; 2
     f12:	0e 94 58 06 	call	0xcb0	; 0xcb0 <RF230DriverLayerP__writeRegister>
     f16:	0e 94 78 02 	call	0x4f0	; 0x4f0 <TransformCounterC__0__Counter__get>
     f1a:	2b 01       	movw	r4, r22
     f1c:	3c 01       	movw	r6, r24
     f1e:	6e 01       	movw	r12, r28
     f20:	ef ef       	ldi	r30, 0xFF	; 255
     f22:	ce 1a       	sub	r12, r30
     f24:	de 0a       	sbc	r13, r30
     f26:	08 81       	ld	r16, Y
     f28:	8c a5       	ldd	r24, Y+44	; 0x2c
     f2a:	2e ef       	ldi	r18, 0xFE	; 254
     f2c:	b2 2e       	mov	r11, r18
     f2e:	b0 0e       	add	r11, r16
     f30:	84 ff       	sbrs	r24, 4
     f32:	09 c0       	rjmp	.+18     	; 0xf46 <RF230DriverLayerP__RadioSend__send+0xde>
     f34:	9e 01       	movw	r18, r28
     f36:	2c 19       	sub	r18, r12
     f38:	3d 09       	sbc	r19, r13
     f3a:	8b ef       	ldi	r24, 0xFB	; 251
     f3c:	80 0f       	add	r24, r16
     f3e:	a8 2e       	mov	r10, r24
     f40:	a2 0e       	add	r10, r18
     f42:	ba 18       	sub	r11, r10
     f44:	02 c0       	rjmp	.+4      	; 0xf4a <RF230DriverLayerP__RadioSend__send+0xe2>
     f46:	ab 2c       	mov	r10, r11
     f48:	b1 2c       	mov	r11, r1
     f4a:	81 e0       	ldi	r24, 0x01	; 1
     f4c:	0e 94 40 06 	call	0xc80	; 0xc80 <RF230DriverLayerP__readRegister>
     f50:	8f 71       	andi	r24, 0x1F	; 31
     f52:	89 30       	cpi	r24, 0x09	; 9
     f54:	39 f0       	breq	.+14     	; 0xf64 <RF230DriverLayerP__RadioSend__send+0xfc>
     f56:	66 e0       	ldi	r22, 0x06	; 6
     f58:	82 e0       	ldi	r24, 0x02	; 2
     f5a:	0e 94 58 06 	call	0xcb0	; 0xcb0 <RF230DriverLayerP__writeRegister>
     f5e:	0e 94 73 05 	call	0xae6	; 0xae6 <RF230DriverLayerP__SpiResource__release>
     f62:	76 c0       	rjmp	.+236    	; 0x1050 <RF230DriverLayerP__RadioSend__send+0x1e8>
     f64:	8f b7       	in	r24, 0x3f	; 63
     f66:	f8 94       	cli
     f68:	2f 9a       	sbi	0x05, 7	; 5
     f6a:	e0 90 84 00 	lds	r14, 0x0084
     f6e:	f0 90 85 00 	lds	r15, 0x0085
     f72:	8f bf       	out	0x3f, r24	; 63
     f74:	0e 94 a7 01 	call	0x34e	; 0x34e <HplAtm128GeneralIOPinP__15__IO__clr>
     f78:	0e 94 c0 01 	call	0x380	; 0x380 <HplAtm128GeneralIOPinP__8__IO__clr>
     f7c:	80 e6       	ldi	r24, 0x60	; 96
     f7e:	8e bd       	out	0x2e, r24	; 46
     f80:	80 2f       	mov	r24, r16
     f82:	0e 94 b9 01 	call	0x372	; 0x372 <Atm128SpiP__FastSpiByte__splitReadWrite>
     f86:	86 01       	movw	r16, r12
     f88:	3a 2c       	mov	r3, r10
     f8a:	f8 01       	movw	r30, r16
     f8c:	81 91       	ld	r24, Z+
     f8e:	8f 01       	movw	r16, r30
     f90:	0e 94 b9 01 	call	0x372	; 0x372 <Atm128SpiP__FastSpiByte__splitReadWrite>
     f94:	3a 94       	dec	r3
     f96:	31 10       	cpse	r3, r1
     f98:	f8 cf       	rjmp	.-16     	; 0xf8a <RF230DriverLayerP__RadioSend__send+0x122>
     f9a:	aa 94       	dec	r10
     f9c:	2a 2d       	mov	r18, r10
     f9e:	30 e0       	ldi	r19, 0x00	; 0
     fa0:	86 01       	movw	r16, r12
     fa2:	02 0f       	add	r16, r18
     fa4:	13 1f       	adc	r17, r19
     fa6:	2f 5f       	subi	r18, 0xFF	; 255
     fa8:	3f 4f       	sbci	r19, 0xFF	; 255
     faa:	2c 0d       	add	r18, r12
     fac:	3d 1d       	adc	r19, r13
     fae:	17 01       	movw	r2, r14
     fb0:	f2 ea       	ldi	r31, 0xA2	; 162
     fb2:	2f 0e       	add	r2, r31
     fb4:	31 1c       	adc	r3, r1
     fb6:	24 18       	sub	r2, r4
     fb8:	35 08       	sbc	r3, r5
     fba:	c1 01       	movw	r24, r2
     fbc:	aa 27       	eor	r26, r26
     fbe:	97 fd       	sbrc	r25, 7
     fc0:	a0 95       	com	r26
     fc2:	ba 2f       	mov	r27, r26
     fc4:	12 01       	movw	r2, r4
     fc6:	23 01       	movw	r4, r6
     fc8:	28 0e       	add	r2, r24
     fca:	39 1e       	adc	r3, r25
     fcc:	4a 1e       	adc	r4, r26
     fce:	5b 1e       	adc	r5, r27
     fd0:	bb 20       	and	r11, r11
     fd2:	41 f1       	breq	.+80     	; 0x1024 <RF230DriverLayerP__RadioSend__send+0x1bc>
     fd4:	f8 01       	movw	r30, r16
     fd6:	81 81       	ldd	r24, Z+1	; 0x01
     fd8:	c2 80       	ldd	r12, Z+2	; 0x02
     fda:	d1 2c       	mov	r13, r1
     fdc:	e1 2c       	mov	r14, r1
     fde:	f1 2c       	mov	r15, r1
     fe0:	76 01       	movw	r14, r12
     fe2:	dd 24       	eor	r13, r13
     fe4:	cc 24       	eor	r12, r12
     fe6:	f8 2a       	or	r15, r24
     fe8:	84 81       	ldd	r24, Z+4	; 0x04
     fea:	c8 2a       	or	r12, r24
     fec:	83 81       	ldd	r24, Z+3	; 0x03
     fee:	d8 2a       	or	r13, r24
     ff0:	d7 01       	movw	r26, r14
     ff2:	c6 01       	movw	r24, r12
     ff4:	82 19       	sub	r24, r2
     ff6:	93 09       	sbc	r25, r3
     ff8:	a4 09       	sbc	r26, r4
     ffa:	b5 09       	sbc	r27, r5
     ffc:	84 83       	std	Z+4, r24	; 0x04
     ffe:	93 83       	std	Z+3, r25	; 0x03
    1000:	a2 83       	std	Z+2, r26	; 0x02
    1002:	b1 83       	std	Z+1, r27	; 0x01
    1004:	a2 2e       	mov	r10, r18
    1006:	39 01       	movw	r6, r18
    1008:	f3 01       	movw	r30, r6
    100a:	81 91       	ld	r24, Z+
    100c:	3f 01       	movw	r6, r30
    100e:	0e 94 b9 01 	call	0x372	; 0x372 <Atm128SpiP__FastSpiByte__splitReadWrite>
    1012:	86 2d       	mov	r24, r6
    1014:	8a 19       	sub	r24, r10
    1016:	8b 11       	cpse	r24, r11
    1018:	f7 cf       	rjmp	.-18     	; 0x1008 <RF230DriverLayerP__RadioSend__send+0x1a0>
    101a:	f8 01       	movw	r30, r16
    101c:	c4 82       	std	Z+4, r12	; 0x04
    101e:	d3 82       	std	Z+3, r13	; 0x03
    1020:	e2 82       	std	Z+2, r14	; 0x02
    1022:	f1 82       	std	Z+1, r15	; 0x01
    1024:	0e 94 b4 01 	call	0x368	; 0x368 <Atm128SpiP__FastSpiByte__splitRead>
    1028:	0e 94 a9 01 	call	0x352	; 0x352 <HplAtm128GeneralIOPinP__8__IO__set>
    102c:	66 e0       	ldi	r22, 0x06	; 6
    102e:	82 e0       	ldi	r24, 0x02	; 2
    1030:	0e 94 58 06 	call	0xcb0	; 0xcb0 <RF230DriverLayerP__writeRegister>
    1034:	8c a5       	ldd	r24, Y+44	; 0x2c
    1036:	82 60       	ori	r24, 0x02	; 2
    1038:	8c a7       	std	Y+44, r24	; 0x2c
    103a:	28 a6       	std	Y+40, r2	; 0x28
    103c:	39 a6       	std	Y+41, r3	; 0x29
    103e:	4a a6       	std	Y+42, r4	; 0x2a
    1040:	5b a6       	std	Y+43, r5	; 0x2b
    1042:	86 e0       	ldi	r24, 0x06	; 6
    1044:	80 93 71 04 	sts	0x0471, r24
    1048:	84 e0       	ldi	r24, 0x04	; 4
    104a:	80 93 2c 02 	sts	0x022C, r24
    104e:	10 e0       	ldi	r17, 0x00	; 0
    1050:	81 2f       	mov	r24, r17
    1052:	df 91       	pop	r29
    1054:	cf 91       	pop	r28
    1056:	1f 91       	pop	r17
    1058:	0f 91       	pop	r16
    105a:	ff 90       	pop	r15
    105c:	ef 90       	pop	r14
    105e:	df 90       	pop	r13
    1060:	cf 90       	pop	r12
    1062:	bf 90       	pop	r11
    1064:	af 90       	pop	r10
    1066:	7f 90       	pop	r7
    1068:	6f 90       	pop	r6
    106a:	5f 90       	pop	r5
    106c:	4f 90       	pop	r4
    106e:	3f 90       	pop	r3
    1070:	2f 90       	pop	r2
    1072:	08 95       	ret

00001074 <TaskletC__0__doit>:
    1074:	3f 92       	push	r3
    1076:	4f 92       	push	r4
    1078:	5f 92       	push	r5
    107a:	6f 92       	push	r6
    107c:	7f 92       	push	r7
    107e:	8f 92       	push	r8
    1080:	9f 92       	push	r9
    1082:	af 92       	push	r10
    1084:	bf 92       	push	r11
    1086:	cf 92       	push	r12
    1088:	df 92       	push	r13
    108a:	ef 92       	push	r14
    108c:	ff 92       	push	r15
    108e:	0f 93       	push	r16
    1090:	1f 93       	push	r17
    1092:	cf 93       	push	r28
    1094:	df 93       	push	r29
    1096:	00 d0       	rcall	.+0      	; 0x1098 <TaskletC__0__doit+0x24>
    1098:	cd b7       	in	r28, 0x3d	; 61
    109a:	de b7       	in	r29, 0x3e	; 62
    109c:	14 e0       	ldi	r17, 0x04	; 4
    109e:	30 e8       	ldi	r19, 0x80	; 128
    10a0:	a3 2e       	mov	r10, r19
    10a2:	05 e0       	ldi	r16, 0x05	; 5
    10a4:	43 e0       	ldi	r20, 0x03	; 3
    10a6:	d4 2e       	mov	r13, r20
    10a8:	59 e0       	ldi	r21, 0x09	; 9
    10aa:	85 2e       	mov	r8, r21
    10ac:	62 e0       	ldi	r22, 0x02	; 2
    10ae:	c6 2e       	mov	r12, r22
    10b0:	78 e0       	ldi	r23, 0x08	; 8
    10b2:	b7 2e       	mov	r11, r23
    10b4:	8b e5       	ldi	r24, 0x5B	; 91
    10b6:	92 e0       	ldi	r25, 0x02	; 2
    10b8:	e5 e0       	ldi	r30, 0x05	; 5
    10ba:	9e 2e       	mov	r9, r30
    10bc:	98 0e       	add	r9, r24
    10be:	80 91 b2 03 	lds	r24, 0x03B2
    10c2:	82 30       	cpi	r24, 0x02	; 2
    10c4:	09 f0       	breq	.+2      	; 0x10c8 <TaskletC__0__doit+0x54>
    10c6:	7d c0       	rjmp	.+250    	; 0x11c2 <TaskletC__0__doit+0x14e>
    10c8:	10 92 b2 03 	sts	0x03B2, r1
    10cc:	80 91 b0 02 	lds	r24, 0x02B0
    10d0:	82 30       	cpi	r24, 0x02	; 2
    10d2:	09 f4       	brne	.+2      	; 0x10d6 <TaskletC__0__doit+0x62>
    10d4:	59 c0       	rjmp	.+178    	; 0x1188 <TaskletC__0__doit+0x114>
    10d6:	83 30       	cpi	r24, 0x03	; 3
    10d8:	09 f4       	brne	.+2      	; 0x10dc <TaskletC__0__doit+0x68>
    10da:	61 c0       	rjmp	.+194    	; 0x119e <TaskletC__0__doit+0x12a>
    10dc:	81 30       	cpi	r24, 0x01	; 1
    10de:	09 f0       	breq	.+2      	; 0x10e2 <TaskletC__0__doit+0x6e>
    10e0:	70 c0       	rjmp	.+224    	; 0x11c2 <TaskletC__0__doit+0x14e>
    10e2:	20 91 84 00 	lds	r18, 0x0084
    10e6:	30 91 85 00 	lds	r19, 0x0085
    10ea:	60 90 3b 03 	lds	r6, 0x033B
    10ee:	70 90 3c 03 	lds	r7, 0x033C
    10f2:	62 1a       	sub	r6, r18
    10f4:	73 0a       	sbc	r7, r19
    10f6:	90 91 9b 02 	lds	r25, 0x029B
    10fa:	90 38       	cpi	r25, 0x80	; 128
    10fc:	41 f4       	brne	.+16     	; 0x110e <TaskletC__0__doit+0x9a>
    10fe:	10 92 9b 02 	sts	0x029B, r1
    1102:	90 91 9a 02 	lds	r25, 0x029A
    1106:	92 30       	cpi	r25, 0x02	; 2
    1108:	09 f0       	breq	.+2      	; 0x110c <TaskletC__0__doit+0x98>
    110a:	5b c0       	rjmp	.+182    	; 0x11c2 <TaskletC__0__doit+0x14e>
    110c:	3a c0       	rjmp	.+116    	; 0x1182 <TaskletC__0__doit+0x10e>
    110e:	97 ff       	sbrs	r25, 7
    1110:	04 c0       	rjmp	.+8      	; 0x111a <TaskletC__0__doit+0xa6>
    1112:	16 14       	cp	r1, r6
    1114:	17 04       	cpc	r1, r7
    1116:	0c f4       	brge	.+2      	; 0x111a <TaskletC__0__doit+0xa6>
    1118:	a8 c3       	rjmp	.+1872   	; 0x186a <TaskletC__0__doit+0x7f6>
    111a:	e0 90 97 02 	lds	r14, 0x0297
    111e:	f0 90 98 02 	lds	r15, 0x0298
    1122:	80 91 41 02 	lds	r24, 0x0241
    1126:	81 11       	cpse	r24, r1
    1128:	a0 c3       	rjmp	.+1856   	; 0x186a <TaskletC__0__doit+0x7f6>
    112a:	c7 01       	movw	r24, r14
    112c:	0e 94 34 07 	call	0xe68	; 0xe68 <RF230DriverLayerP__RadioSend__send>
    1130:	28 2f       	mov	r18, r24
    1132:	81 11       	cpse	r24, r1
    1134:	9b c3       	rjmp	.+1846   	; 0x186c <TaskletC__0__doit+0x7f8>
    1136:	d7 01       	movw	r26, r14
    1138:	9c 96       	adiw	r26, 0x2c	; 44
    113a:	8c 91       	ld	r24, X
    113c:	9c 97       	sbiw	r26, 0x2c	; 44
    113e:	8e 7f       	andi	r24, 0xFE	; 254
    1140:	9c 96       	adiw	r26, 0x2c	; 44
    1142:	8c 93       	st	X, r24
    1144:	81 e0       	ldi	r24, 0x01	; 1
    1146:	80 93 41 02 	sts	0x0241, r24
    114a:	f0 92 78 04 	sts	0x0478, r15
    114e:	e0 92 77 04 	sts	0x0477, r14
    1152:	d0 92 9b 02 	sts	0x029B, r13
    1156:	35 c0       	rjmp	.+106    	; 0x11c2 <TaskletC__0__doit+0x14e>
    1158:	97 ff       	sbrs	r25, 7
    115a:	9f c3       	rjmp	.+1854   	; 0x189a <TaskletC__0__doit+0x826>
    115c:	16 14       	cp	r1, r6
    115e:	17 04       	cpc	r1, r7
    1160:	0c f0       	brlt	.+2      	; 0x1164 <TaskletC__0__doit+0xf0>
    1162:	9b c3       	rjmp	.+1846   	; 0x189a <TaskletC__0__doit+0x826>
    1164:	a0 92 9b 02 	sts	0x029B, r10
    1168:	81 e0       	ldi	r24, 0x01	; 1
    116a:	80 93 b0 02 	sts	0x02B0, r24
    116e:	80 93 b2 03 	sts	0x03B2, r24
    1172:	c3 01       	movw	r24, r6
    1174:	29 83       	std	Y+1, r18	; 0x01
    1176:	0e 94 a3 02 	call	0x546	; 0x546 <Atm128AlarmC__0__Alarm__start>
    117a:	29 81       	ldd	r18, Y+1	; 0x01
    117c:	20 93 e0 03 	sts	0x03E0, r18
    1180:	81 e0       	ldi	r24, 0x01	; 1
    1182:	80 93 9a 02 	sts	0x029A, r24
    1186:	08 c0       	rjmp	.+16     	; 0x1198 <TaskletC__0__doit+0x124>
    1188:	10 92 41 02 	sts	0x0241, r1
    118c:	10 92 9b 02 	sts	0x029B, r1
    1190:	10 92 e0 03 	sts	0x03E0, r1
    1194:	10 93 9a 02 	sts	0x029A, r17
    1198:	0e 94 20 02 	call	0x440	; 0x440 <MessageBufferLayerP__0__sendTask__postTask>
    119c:	12 c0       	rjmp	.+36     	; 0x11c2 <TaskletC__0__doit+0x14e>
    119e:	90 91 71 04 	lds	r25, 0x0471
    11a2:	92 30       	cpi	r25, 0x02	; 2
    11a4:	19 f4       	brne	.+6      	; 0x11ac <TaskletC__0__doit+0x138>
    11a6:	80 93 71 04 	sts	0x0471, r24
    11aa:	09 c0       	rjmp	.+18     	; 0x11be <TaskletC__0__doit+0x14a>
    11ac:	80 91 2c 02 	lds	r24, 0x022C
    11b0:	86 30       	cpi	r24, 0x06	; 6
    11b2:	29 f4       	brne	.+10     	; 0x11be <TaskletC__0__doit+0x14a>
    11b4:	10 92 2c 02 	sts	0x022C, r1
    11b8:	81 e0       	ldi	r24, 0x01	; 1
    11ba:	0e 94 40 06 	call	0xc80	; 0xc80 <RF230DriverLayerP__readRegister>
    11be:	0e 94 c1 0d 	call	0x1b82	; 0x1b82 <TaskletC__0__Tasklet__schedule>
    11c2:	80 91 cb 03 	lds	r24, 0x03CB
    11c6:	88 23       	and	r24, r24
    11c8:	09 f4       	brne	.+2      	; 0x11cc <TaskletC__0__doit+0x158>
    11ca:	b3 c0       	rjmp	.+358    	; 0x1332 <TaskletC__0__doit+0x2be>
    11cc:	80 91 71 04 	lds	r24, 0x0471
    11d0:	81 30       	cpi	r24, 0x01	; 1
    11d2:	09 f4       	brne	.+2      	; 0x11d6 <TaskletC__0__doit+0x162>
    11d4:	ae c0       	rjmp	.+348    	; 0x1332 <TaskletC__0__doit+0x2be>
    11d6:	0e 94 b1 06 	call	0xd62	; 0xd62 <RF230DriverLayerP__isSpiAcquired>
    11da:	88 23       	and	r24, r24
    11dc:	09 f4       	brne	.+2      	; 0x11e0 <TaskletC__0__doit+0x16c>
    11de:	a9 c0       	rjmp	.+338    	; 0x1332 <TaskletC__0__doit+0x2be>
    11e0:	8f b7       	in	r24, 0x3f	; 63
    11e2:	f8 94       	cli
    11e4:	60 90 a9 02 	lds	r6, 0x02A9
    11e8:	70 90 aa 02 	lds	r7, 0x02AA
    11ec:	8f bf       	out	0x3f, r24	; 63
    11ee:	10 92 cb 03 	sts	0x03CB, r1
    11f2:	8f e0       	ldi	r24, 0x0F	; 15
    11f4:	0e 94 40 06 	call	0xc80	; 0xc80 <RF230DriverLayerP__readRegister>
    11f8:	f8 2e       	mov	r15, r24
    11fa:	80 91 2c 02 	lds	r24, 0x022C
    11fe:	8b 7f       	andi	r24, 0xFB	; 251
    1200:	83 30       	cpi	r24, 0x03	; 3
    1202:	21 f4       	brne	.+8      	; 0x120c <TaskletC__0__doit+0x198>
    1204:	00 93 71 04 	sts	0x0471, r16
    1208:	b0 92 2c 02 	sts	0x022C, r11
    120c:	f2 fe       	sbrs	r15, 2
    120e:	4a c0       	rjmp	.+148    	; 0x12a4 <TaskletC__0__doit+0x230>
    1210:	80 91 2c 02 	lds	r24, 0x022C
    1214:	86 30       	cpi	r24, 0x06	; 6
    1216:	11 f4       	brne	.+4      	; 0x121c <TaskletC__0__doit+0x1a8>
    1218:	10 92 2c 02 	sts	0x022C, r1
    121c:	80 91 2c 02 	lds	r24, 0x022C
    1220:	81 11       	cpse	r24, r1
    1222:	40 c0       	rjmp	.+128    	; 0x12a4 <TaskletC__0__doit+0x230>
    1224:	b4 e0       	ldi	r27, 0x04	; 4
    1226:	fb 12       	cpse	r15, r27
    1228:	34 c0       	rjmp	.+104    	; 0x1292 <TaskletC__0__doit+0x21e>
    122a:	86 e0       	ldi	r24, 0x06	; 6
    122c:	0e 94 40 06 	call	0xc80	; 0xc80 <RF230DriverLayerP__readRegister>
    1230:	8f 71       	andi	r24, 0x1F	; 31
    1232:	90 91 96 02 	lds	r25, 0x0296
    1236:	29 2f       	mov	r18, r25
    1238:	26 95       	lsr	r18
    123a:	26 95       	lsr	r18
    123c:	92 1b       	sub	r25, r18
    123e:	98 0f       	add	r25, r24
    1240:	90 93 96 02 	sts	0x0296, r25
    1244:	e0 91 39 02 	lds	r30, 0x0239
    1248:	f0 91 3a 02 	lds	r31, 0x023A
    124c:	94 a5       	ldd	r25, Z+44	; 0x2c
    124e:	9b 7f       	andi	r25, 0xFB	; 251
    1250:	98 60       	ori	r25, 0x08	; 8
    1252:	94 a7       	std	Z+44, r25	; 0x2c
    1254:	86 a7       	std	Z+46, r24	; 0x2e
    1256:	0e 94 78 02 	call	0x4f0	; 0x4f0 <TransformCounterC__0__Counter__get>
    125a:	93 01       	movw	r18, r6
    125c:	27 50       	subi	r18, 0x07	; 7
    125e:	31 09       	sbc	r19, r1
    1260:	26 1b       	sub	r18, r22
    1262:	37 0b       	sbc	r19, r23
    1264:	29 01       	movw	r4, r18
    1266:	66 24       	eor	r6, r6
    1268:	57 fc       	sbrc	r5, 7
    126a:	60 94       	com	r6
    126c:	76 2c       	mov	r7, r6
    126e:	e0 91 39 02 	lds	r30, 0x0239
    1272:	f0 91 3a 02 	lds	r31, 0x023A
    1276:	24 a5       	ldd	r18, Z+44	; 0x2c
    1278:	22 60       	ori	r18, 0x02	; 2
    127a:	24 a7       	std	Z+44, r18	; 0x2c
    127c:	ab 01       	movw	r20, r22
    127e:	bc 01       	movw	r22, r24
    1280:	44 0d       	add	r20, r4
    1282:	55 1d       	adc	r21, r5
    1284:	66 1d       	adc	r22, r6
    1286:	77 1d       	adc	r23, r7
    1288:	40 a7       	std	Z+40, r20	; 0x28
    128a:	51 a7       	std	Z+41, r21	; 0x29
    128c:	62 a7       	std	Z+42, r22	; 0x2a
    128e:	73 a7       	std	Z+43, r23	; 0x2b
    1290:	07 c0       	rjmp	.+14     	; 0x12a0 <TaskletC__0__doit+0x22c>
    1292:	e0 91 39 02 	lds	r30, 0x0239
    1296:	f0 91 3a 02 	lds	r31, 0x023A
    129a:	84 a5       	ldd	r24, Z+44	; 0x2c
    129c:	85 7f       	andi	r24, 0xF5	; 245
    129e:	84 a7       	std	Z+44, r24	; 0x2c
    12a0:	00 93 2c 02 	sts	0x022C, r16
    12a4:	f3 fe       	sbrs	r15, 3
    12a6:	45 c0       	rjmp	.+138    	; 0x1332 <TaskletC__0__doit+0x2be>
    12a8:	80 91 2c 02 	lds	r24, 0x022C
    12ac:	84 30       	cpi	r24, 0x04	; 4
    12ae:	81 f5       	brne	.+96     	; 0x1310 <TaskletC__0__doit+0x29c>
    12b0:	00 93 71 04 	sts	0x0471, r16
    12b4:	10 92 2c 02 	sts	0x022C, r1
    12b8:	80 91 41 02 	lds	r24, 0x0241
    12bc:	83 30       	cpi	r24, 0x03	; 3
    12be:	19 f4       	brne	.+6      	; 0x12c6 <TaskletC__0__doit+0x252>
    12c0:	10 92 41 02 	sts	0x0241, r1
    12c4:	36 c0       	rjmp	.+108    	; 0x1332 <TaskletC__0__doit+0x2be>
    12c6:	e0 91 77 04 	lds	r30, 0x0477
    12ca:	f0 91 78 04 	lds	r31, 0x0478
    12ce:	82 81       	ldd	r24, Z+2	; 0x02
    12d0:	90 e0       	ldi	r25, 0x00	; 0
    12d2:	98 2f       	mov	r25, r24
    12d4:	88 27       	eor	r24, r24
    12d6:	21 81       	ldd	r18, Z+1	; 0x01
    12d8:	82 2b       	or	r24, r18
    12da:	85 ff       	sbrs	r24, 5
    12dc:	0e c0       	rjmp	.+28     	; 0x12fa <TaskletC__0__doit+0x286>
    12de:	87 74       	andi	r24, 0x47	; 71
    12e0:	9c 7c       	andi	r25, 0xCC	; 204
    12e2:	81 34       	cpi	r24, 0x41	; 65
    12e4:	98 48       	sbci	r25, 0x88	; 136
    12e6:	49 f4       	brne	.+18     	; 0x12fa <TaskletC__0__doit+0x286>
    12e8:	87 81       	ldd	r24, Z+7	; 0x07
    12ea:	90 e0       	ldi	r25, 0x00	; 0
    12ec:	98 2f       	mov	r25, r24
    12ee:	88 27       	eor	r24, r24
    12f0:	26 81       	ldd	r18, Z+6	; 0x06
    12f2:	82 2b       	or	r24, r18
    12f4:	01 96       	adiw	r24, 0x01	; 1
    12f6:	09 f0       	breq	.+2      	; 0x12fa <TaskletC__0__doit+0x286>
    12f8:	d3 c2       	rjmp	.+1446   	; 0x18a0 <TaskletC__0__doit+0x82c>
    12fa:	10 92 41 02 	sts	0x0241, r1
    12fe:	10 92 9b 02 	sts	0x029B, r1
    1302:	10 92 e0 03 	sts	0x03E0, r1
    1306:	10 93 9a 02 	sts	0x029A, r17
    130a:	0e 94 20 02 	call	0x440	; 0x440 <MessageBufferLayerP__0__sendTask__postTask>
    130e:	11 c0       	rjmp	.+34     	; 0x1332 <TaskletC__0__doit+0x2be>
    1310:	85 30       	cpi	r24, 0x05	; 5
    1312:	79 f4       	brne	.+30     	; 0x1332 <TaskletC__0__doit+0x2be>
    1314:	86 e0       	ldi	r24, 0x06	; 6
    1316:	0e 94 40 06 	call	0xc80	; 0xc80 <RF230DriverLayerP__readRegister>
    131a:	90 91 a6 02 	lds	r25, 0x02A6
    131e:	8f 71       	andi	r24, 0x1F	; 31
    1320:	29 2f       	mov	r18, r25
    1322:	26 95       	lsr	r18
    1324:	26 95       	lsr	r18
    1326:	92 1b       	sub	r25, r18
    1328:	98 0f       	add	r25, r24
    132a:	90 93 a6 02 	sts	0x02A6, r25
    132e:	80 92 2c 02 	sts	0x022C, r8
    1332:	80 91 2c 02 	lds	r24, 0x022C
    1336:	88 23       	and	r24, r24
    1338:	09 f4       	brne	.+2      	; 0x133c <TaskletC__0__doit+0x2c8>
    133a:	4d c2       	rjmp	.+1178   	; 0x17d6 <TaskletC__0__doit+0x762>
    133c:	89 30       	cpi	r24, 0x09	; 9
    133e:	09 f0       	breq	.+2      	; 0x1342 <TaskletC__0__doit+0x2ce>
    1340:	bc c1       	rjmp	.+888    	; 0x16ba <TaskletC__0__doit+0x646>
    1342:	0e 94 c0 01 	call	0x380	; 0x380 <HplAtm128GeneralIOPinP__8__IO__clr>
    1346:	80 e2       	ldi	r24, 0x20	; 32
    1348:	8e bd       	out	0x2e, r24	; 46
    134a:	0d b4       	in	r0, 0x2d	; 45
    134c:	07 fe       	sbrs	r0, 7
    134e:	fd cf       	rjmp	.-6      	; 0x134a <TaskletC__0__doit+0x2d6>
    1350:	8e b5       	in	r24, 0x2e	; 46
    1352:	1e bc       	out	0x2e, r1	; 46
    1354:	0d b4       	in	r0, 0x2d	; 45
    1356:	07 fe       	sbrs	r0, 7
    1358:	fd cf       	rjmp	.-6      	; 0x1354 <TaskletC__0__doit+0x2e0>
    135a:	8e b5       	in	r24, 0x2e	; 46
    135c:	9d ef       	ldi	r25, 0xFD	; 253
    135e:	98 0f       	add	r25, r24
    1360:	97 32       	cpi	r25, 0x27	; 39
    1362:	08 f0       	brcs	.+2      	; 0x1366 <TaskletC__0__doit+0x2f2>
    1364:	7a c0       	rjmp	.+244    	; 0x145a <TaskletC__0__doit+0x3e6>
    1366:	1e bc       	out	0x2e, r1	; 46
    1368:	e0 91 39 02 	lds	r30, 0x0239
    136c:	f0 91 3a 02 	lds	r31, 0x023A
    1370:	3f 01       	movw	r6, r30
    1372:	5f ef       	ldi	r21, 0xFF	; 255
    1374:	65 1a       	sub	r6, r21
    1376:	75 0a       	sbc	r7, r21
    1378:	80 83       	st	Z, r24
    137a:	ae ef       	ldi	r26, 0xFE	; 254
    137c:	5a 2e       	mov	r5, r26
    137e:	58 0e       	add	r5, r24
    1380:	86 e0       	ldi	r24, 0x06	; 6
    1382:	85 15       	cp	r24, r5
    1384:	10 f0       	brcs	.+4      	; 0x138a <TaskletC__0__doit+0x316>
    1386:	45 2c       	mov	r4, r5
    1388:	02 c0       	rjmp	.+4      	; 0x138e <TaskletC__0__doit+0x31a>
    138a:	f7 e0       	ldi	r31, 0x07	; 7
    138c:	4f 2e       	mov	r4, r31
    138e:	73 01       	movw	r14, r6
    1390:	34 2c       	mov	r3, r4
    1392:	40 e0       	ldi	r20, 0x00	; 0
    1394:	50 e0       	ldi	r21, 0x00	; 0
    1396:	80 e0       	ldi	r24, 0x00	; 0
    1398:	49 83       	std	Y+1, r20	; 0x01
    139a:	5a 83       	std	Y+2, r21	; 0x02
    139c:	0e 94 b9 01 	call	0x372	; 0x372 <Atm128SpiP__FastSpiByte__splitReadWrite>
    13a0:	d7 01       	movw	r26, r14
    13a2:	8d 93       	st	X+, r24
    13a4:	7d 01       	movw	r14, r26
    13a6:	68 2f       	mov	r22, r24
    13a8:	49 81       	ldd	r20, Y+1	; 0x01
    13aa:	5a 81       	ldd	r21, Y+2	; 0x02
    13ac:	ca 01       	movw	r24, r20
    13ae:	0e 94 c2 01 	call	0x384	; 0x384 <_crc_ccitt_update>
    13b2:	ac 01       	movw	r20, r24
    13b4:	3a 94       	dec	r3
    13b6:	31 10       	cpse	r3, r1
    13b8:	ee cf       	rjmp	.-36     	; 0x1396 <TaskletC__0__doit+0x322>
    13ba:	2f ef       	ldi	r18, 0xFF	; 255
    13bc:	24 0d       	add	r18, r4
    13be:	30 e0       	ldi	r19, 0x00	; 0
    13c0:	2f 5f       	subi	r18, 0xFF	; 255
    13c2:	3f 4f       	sbci	r19, 0xFF	; 255
    13c4:	62 0e       	add	r6, r18
    13c6:	73 1e       	adc	r7, r19
    13c8:	e0 91 39 02 	lds	r30, 0x0239
    13cc:	f0 91 3a 02 	lds	r31, 0x023A
    13d0:	81 81       	ldd	r24, Z+1	; 0x01
    13d2:	87 70       	andi	r24, 0x07	; 7
    13d4:	82 30       	cpi	r24, 0x02	; 2
    13d6:	29 f4       	brne	.+10     	; 0x13e2 <TaskletC__0__doit+0x36e>
    13d8:	80 91 41 02 	lds	r24, 0x0241
    13dc:	82 30       	cpi	r24, 0x02	; 2
    13de:	d9 f5       	brne	.+118    	; 0x1456 <TaskletC__0__doit+0x3e2>
    13e0:	0b c0       	rjmp	.+22     	; 0x13f8 <TaskletC__0__doit+0x384>
    13e2:	9f b7       	in	r25, 0x3f	; 63
    13e4:	f8 94       	cli
    13e6:	81 e0       	ldi	r24, 0x01	; 1
    13e8:	20 91 c0 03 	lds	r18, 0x03C0
    13ec:	23 30       	cpi	r18, 0x03	; 3
    13ee:	08 f0       	brcs	.+2      	; 0x13f2 <TaskletC__0__doit+0x37e>
    13f0:	80 e0       	ldi	r24, 0x00	; 0
    13f2:	9f bf       	out	0x3f, r25	; 63
    13f4:	88 23       	and	r24, r24
    13f6:	79 f1       	breq	.+94     	; 0x1456 <TaskletC__0__doit+0x3e2>
    13f8:	85 2d       	mov	r24, r5
    13fa:	84 19       	sub	r24, r4
    13fc:	73 01       	movw	r14, r6
    13fe:	68 0e       	add	r6, r24
    1400:	80 e0       	ldi	r24, 0x00	; 0
    1402:	49 83       	std	Y+1, r20	; 0x01
    1404:	5a 83       	std	Y+2, r21	; 0x02
    1406:	6e 14       	cp	r6, r14
    1408:	69 f0       	breq	.+26     	; 0x1424 <TaskletC__0__doit+0x3b0>
    140a:	0e 94 b9 01 	call	0x372	; 0x372 <Atm128SpiP__FastSpiByte__splitReadWrite>
    140e:	f7 01       	movw	r30, r14
    1410:	81 93       	st	Z+, r24
    1412:	7f 01       	movw	r14, r30
    1414:	68 2f       	mov	r22, r24
    1416:	49 81       	ldd	r20, Y+1	; 0x01
    1418:	5a 81       	ldd	r21, Y+2	; 0x02
    141a:	ca 01       	movw	r24, r20
    141c:	0e 94 c2 01 	call	0x384	; 0x384 <_crc_ccitt_update>
    1420:	ac 01       	movw	r20, r24
    1422:	ee cf       	rjmp	.-36     	; 0x1400 <TaskletC__0__doit+0x38c>
    1424:	0e 94 b9 01 	call	0x372	; 0x372 <Atm128SpiP__FastSpiByte__splitReadWrite>
    1428:	68 2f       	mov	r22, r24
    142a:	49 81       	ldd	r20, Y+1	; 0x01
    142c:	5a 81       	ldd	r21, Y+2	; 0x02
    142e:	ca 01       	movw	r24, r20
    1430:	0e 94 c2 01 	call	0x384	; 0x384 <_crc_ccitt_update>
    1434:	7c 01       	movw	r14, r24
    1436:	80 e0       	ldi	r24, 0x00	; 0
    1438:	0e 94 b9 01 	call	0x372	; 0x372 <Atm128SpiP__FastSpiByte__splitReadWrite>
    143c:	68 2f       	mov	r22, r24
    143e:	c7 01       	movw	r24, r14
    1440:	0e 94 c2 01 	call	0x384	; 0x384 <_crc_ccitt_update>
    1444:	7c 01       	movw	r14, r24
    1446:	0e 94 b4 01 	call	0x368	; 0x368 <Atm128SpiP__FastSpiByte__splitRead>
    144a:	e0 91 39 02 	lds	r30, 0x0239
    144e:	f0 91 3a 02 	lds	r31, 0x023A
    1452:	85 a7       	std	Z+45, r24	; 0x2d
    1454:	05 c0       	rjmp	.+10     	; 0x1460 <TaskletC__0__doit+0x3ec>
    1456:	0e 94 b4 01 	call	0x368	; 0x368 <Atm128SpiP__FastSpiByte__splitRead>
    145a:	ee 24       	eor	r14, r14
    145c:	e3 94       	inc	r14
    145e:	f1 2c       	mov	r15, r1
    1460:	0e 94 a9 01 	call	0x352	; 0x352 <HplAtm128GeneralIOPinP__8__IO__set>
    1464:	00 93 71 04 	sts	0x0471, r16
    1468:	10 92 2c 02 	sts	0x022C, r1
    146c:	ef 28       	or	r14, r15
    146e:	09 f0       	breq	.+2      	; 0x1472 <TaskletC__0__doit+0x3fe>
    1470:	a9 c1       	rjmp	.+850    	; 0x17c4 <TaskletC__0__doit+0x750>
    1472:	40 90 39 02 	lds	r4, 0x0239
    1476:	50 90 3a 02 	lds	r5, 0x023A
    147a:	d2 01       	movw	r26, r4
    147c:	11 96       	adiw	r26, 0x01	; 1
    147e:	8c 91       	ld	r24, X
    1480:	11 97       	sbiw	r26, 0x01	; 1
    1482:	87 70       	andi	r24, 0x07	; 7
    1484:	90 91 41 02 	lds	r25, 0x0241
    1488:	82 30       	cpi	r24, 0x02	; 2
    148a:	29 f5       	brne	.+74     	; 0x14d6 <TaskletC__0__doit+0x462>
    148c:	92 30       	cpi	r25, 0x02	; 2
    148e:	09 f0       	breq	.+2      	; 0x1492 <TaskletC__0__doit+0x41e>
    1490:	0f c1       	rjmp	.+542    	; 0x16b0 <TaskletC__0__doit+0x63c>
    1492:	e0 91 77 04 	lds	r30, 0x0477
    1496:	f0 91 78 04 	lds	r31, 0x0478
    149a:	13 96       	adiw	r26, 0x03	; 3
    149c:	9c 91       	ld	r25, X
    149e:	83 81       	ldd	r24, Z+3	; 0x03
    14a0:	98 13       	cpse	r25, r24
    14a2:	06 c1       	rjmp	.+524    	; 0x16b0 <TaskletC__0__doit+0x63c>
    14a4:	80 91 6f 00 	lds	r24, 0x006F
    14a8:	8d 7f       	andi	r24, 0xFD	; 253
    14aa:	80 93 6f 00 	sts	0x006F, r24
    14ae:	10 92 b2 03 	sts	0x03B2, r1
    14b2:	e0 91 77 04 	lds	r30, 0x0477
    14b6:	f0 91 78 04 	lds	r31, 0x0478
    14ba:	84 a5       	ldd	r24, Z+44	; 0x2c
    14bc:	81 60       	ori	r24, 0x01	; 1
    14be:	84 a7       	std	Z+44, r24	; 0x2c
    14c0:	10 92 41 02 	sts	0x0241, r1
    14c4:	10 92 9b 02 	sts	0x029B, r1
    14c8:	10 92 e0 03 	sts	0x03E0, r1
    14cc:	10 93 9a 02 	sts	0x029A, r17
    14d0:	0e 94 20 02 	call	0x440	; 0x440 <MessageBufferLayerP__0__sendTask__postTask>
    14d4:	ed c0       	rjmp	.+474    	; 0x16b0 <TaskletC__0__doit+0x63c>
    14d6:	91 11       	cpse	r25, r1
    14d8:	17 c0       	rjmp	.+46     	; 0x1508 <TaskletC__0__doit+0x494>
    14da:	c2 01       	movw	r24, r4
    14dc:	0e 94 8d 06 	call	0xd1a	; 0xd1a <Ieee154PacketLayerP__0__Ieee154PacketLayer__requiresAckReply>
    14e0:	88 23       	and	r24, r24
    14e2:	91 f0       	breq	.+36     	; 0x1508 <TaskletC__0__doit+0x494>
    14e4:	00 93 e6 02 	sts	0x02E6, r16
    14e8:	c0 92 e7 02 	sts	0x02E7, r12
    14ec:	10 92 e8 02 	sts	0x02E8, r1
    14f0:	f2 01       	movw	r30, r4
    14f2:	83 81       	ldd	r24, Z+3	; 0x03
    14f4:	80 93 e9 02 	sts	0x02E9, r24
    14f8:	86 ee       	ldi	r24, 0xE6	; 230
    14fa:	92 e0       	ldi	r25, 0x02	; 2
    14fc:	0e 94 34 07 	call	0xe68	; 0xe68 <RF230DriverLayerP__RadioSend__send>
    1500:	81 11       	cpse	r24, r1
    1502:	02 c0       	rjmp	.+4      	; 0x1508 <TaskletC__0__doit+0x494>
    1504:	d0 92 41 02 	sts	0x0241, r13
    1508:	e0 90 84 00 	lds	r14, 0x0084
    150c:	f0 90 85 00 	lds	r15, 0x0085
    1510:	c2 01       	movw	r24, r4
    1512:	0e 94 8d 06 	call	0xd1a	; 0xd1a <Ieee154PacketLayerP__0__Ieee154PacketLayer__requiresAckReply>
    1516:	88 23       	and	r24, r24
    1518:	21 f0       	breq	.+8      	; 0x1522 <TaskletC__0__doit+0x4ae>
    151a:	f4 ee       	ldi	r31, 0xE4	; 228
    151c:	ef 1a       	sub	r14, r31
    151e:	fc ef       	ldi	r31, 0xFC	; 252
    1520:	ff 0a       	sbc	r15, r31
    1522:	f0 92 3c 03 	sts	0x033C, r15
    1526:	e0 92 3b 03 	sts	0x033B, r14
    152a:	80 91 84 00 	lds	r24, 0x0084
    152e:	90 91 85 00 	lds	r25, 0x0085
    1532:	97 01       	movw	r18, r14
    1534:	28 1b       	sub	r18, r24
    1536:	39 0b       	sbc	r19, r25
    1538:	c9 01       	movw	r24, r18
    153a:	18 16       	cp	r1, r24
    153c:	19 06       	cpc	r1, r25
    153e:	ac f4       	brge	.+42     	; 0x156a <TaskletC__0__doit+0x4f6>
    1540:	20 91 9b 02 	lds	r18, 0x029B
    1544:	21 11       	cpse	r18, r1
    1546:	0e c0       	rjmp	.+28     	; 0x1564 <TaskletC__0__doit+0x4f0>
    1548:	20 91 b2 03 	lds	r18, 0x03B2
    154c:	21 11       	cpse	r18, r1
    154e:	0d c0       	rjmp	.+26     	; 0x156a <TaskletC__0__doit+0x4f6>
    1550:	21 e0       	ldi	r18, 0x01	; 1
    1552:	20 93 b0 02 	sts	0x02B0, r18
    1556:	20 93 b2 03 	sts	0x03B2, r18
    155a:	0e 94 a3 02 	call	0x546	; 0x546 <Atm128AlarmC__0__Alarm__start>
    155e:	a0 92 9b 02 	sts	0x029B, r10
    1562:	03 c0       	rjmp	.+6      	; 0x156a <TaskletC__0__doit+0x4f6>
    1564:	20 68       	ori	r18, 0x80	; 128
    1566:	20 93 9b 02 	sts	0x029B, r18
    156a:	d2 01       	movw	r26, r4
    156c:	19 96       	adiw	r26, 0x09	; 9
    156e:	8c 91       	ld	r24, X
    1570:	19 97       	sbiw	r26, 0x09	; 9
    1572:	90 e0       	ldi	r25, 0x00	; 0
    1574:	98 2f       	mov	r25, r24
    1576:	88 27       	eor	r24, r24
    1578:	18 96       	adiw	r26, 0x08	; 8
    157a:	2c 91       	ld	r18, X
    157c:	82 2b       	or	r24, r18
    157e:	20 91 75 04 	lds	r18, 0x0475
    1582:	42 2f       	mov	r20, r18
    1584:	50 e0       	ldi	r21, 0x00	; 0
    1586:	fa 01       	movw	r30, r20
    1588:	ee 0f       	add	r30, r30
    158a:	ff 1f       	adc	r31, r31
    158c:	e2 58       	subi	r30, 0x82	; 130
    158e:	fb 4f       	sbci	r31, 0xFB	; 251
    1590:	60 81       	ld	r22, Z
    1592:	71 81       	ldd	r23, Z+1	; 0x01
    1594:	f0 90 7b 04 	lds	r15, 0x047B
    1598:	68 17       	cp	r22, r24
    159a:	79 07       	cpc	r23, r25
    159c:	11 f4       	brne	.+4      	; 0x15a2 <TaskletC__0__doit+0x52e>
    159e:	fa 01       	movw	r30, r20
    15a0:	10 c0       	rjmp	.+32     	; 0x15c2 <TaskletC__0__doit+0x54e>
    15a2:	ae e7       	ldi	r26, 0x7E	; 126
    15a4:	b4 e0       	ldi	r27, 0x04	; 4
    15a6:	eb e5       	ldi	r30, 0x5B	; 91
    15a8:	f2 e0       	ldi	r31, 0x02	; 2
    15aa:	20 e0       	ldi	r18, 0x00	; 0
    15ac:	30 e0       	ldi	r19, 0x00	; 0
    15ae:	70 e0       	ldi	r23, 0x00	; 0
    15b0:	60 e0       	ldi	r22, 0x00	; 0
    15b2:	4d 91       	ld	r20, X+
    15b4:	5d 91       	ld	r21, X+
    15b6:	48 17       	cp	r20, r24
    15b8:	59 07       	cpc	r21, r25
    15ba:	79 f4       	brne	.+30     	; 0x15da <TaskletC__0__doit+0x566>
    15bc:	20 93 75 04 	sts	0x0475, r18
    15c0:	f9 01       	movw	r30, r18
    15c2:	e5 5a       	subi	r30, 0xA5	; 165
    15c4:	fd 4f       	sbci	r31, 0xFD	; 253
    15c6:	80 81       	ld	r24, Z
    15c8:	8f 15       	cp	r24, r15
    15ca:	09 f4       	brne	.+2      	; 0x15ce <TaskletC__0__doit+0x55a>
    15cc:	3f c0       	rjmp	.+126    	; 0x164c <TaskletC__0__doit+0x5d8>
    15ce:	f3 94       	inc	r15
    15d0:	f0 92 7b 04 	sts	0x047B, r15
    15d4:	f0 82       	st	Z, r15
    15d6:	60 e8       	ldi	r22, 0x80	; 128
    15d8:	22 c0       	rjmp	.+68     	; 0x161e <TaskletC__0__doit+0x5aa>
    15da:	41 91       	ld	r20, Z+
    15dc:	5f 2d       	mov	r21, r15
    15de:	54 1b       	sub	r21, r20
    15e0:	65 17       	cp	r22, r21
    15e2:	10 f4       	brcc	.+4      	; 0x15e8 <TaskletC__0__doit+0x574>
    15e4:	72 2f       	mov	r23, r18
    15e6:	65 2f       	mov	r22, r21
    15e8:	2f 5f       	subi	r18, 0xFF	; 255
    15ea:	3f 4f       	sbci	r19, 0xFF	; 255
    15ec:	25 30       	cpi	r18, 0x05	; 5
    15ee:	31 05       	cpc	r19, r1
    15f0:	01 f7       	brne	.-64     	; 0x15b2 <TaskletC__0__doit+0x53e>
    15f2:	70 93 75 04 	sts	0x0475, r23
    15f6:	27 2f       	mov	r18, r23
    15f8:	30 e0       	ldi	r19, 0x00	; 0
    15fa:	f9 01       	movw	r30, r18
    15fc:	ee 0f       	add	r30, r30
    15fe:	ff 1f       	adc	r31, r31
    1600:	e2 58       	subi	r30, 0x82	; 130
    1602:	fb 4f       	sbci	r31, 0xFB	; 251
    1604:	91 83       	std	Z+1, r25	; 0x01
    1606:	80 83       	st	Z, r24
    1608:	f3 94       	inc	r15
    160a:	f0 92 7b 04 	sts	0x047B, r15
    160e:	f9 01       	movw	r30, r18
    1610:	e5 5a       	subi	r30, 0xA5	; 165
    1612:	fd 4f       	sbci	r31, 0xFD	; 253
    1614:	f0 82       	st	Z, r15
    1616:	f9 01       	movw	r30, r18
    1618:	e4 5c       	subi	r30, 0xC4	; 196
    161a:	fd 4f       	sbci	r31, 0xFD	; 253
    161c:	10 82       	st	Z, r1
    161e:	80 91 7b 04 	lds	r24, 0x047B
    1622:	98 2f       	mov	r25, r24
    1624:	9f 77       	andi	r25, 0x7F	; 127
    1626:	9f 37       	cpi	r25, 0x7F	; 127
    1628:	19 f0       	breq	.+6      	; 0x1630 <TaskletC__0__doit+0x5bc>
    162a:	20 91 75 04 	lds	r18, 0x0475
    162e:	0e c0       	rjmp	.+28     	; 0x164c <TaskletC__0__doit+0x5d8>
    1630:	6f 37       	cpi	r22, 0x7F	; 127
    1632:	d8 f3       	brcs	.-10     	; 0x162a <TaskletC__0__doit+0x5b6>
    1634:	eb e5       	ldi	r30, 0x5B	; 91
    1636:	f2 e0       	ldi	r31, 0x02	; 2
    1638:	28 2f       	mov	r18, r24
    163a:	20 78       	andi	r18, 0x80	; 128
    163c:	90 81       	ld	r25, Z
    163e:	9f 67       	ori	r25, 0x7F	; 127
    1640:	98 13       	cpse	r25, r24
    1642:	20 83       	st	Z, r18
    1644:	31 96       	adiw	r30, 0x01	; 1
    1646:	9e 12       	cpse	r9, r30
    1648:	f9 cf       	rjmp	.-14     	; 0x163c <TaskletC__0__doit+0x5c8>
    164a:	ef cf       	rjmp	.-34     	; 0x162a <TaskletC__0__doit+0x5b6>
    164c:	d2 01       	movw	r26, r4
    164e:	13 96       	adiw	r26, 0x03	; 3
    1650:	9c 91       	ld	r25, X
    1652:	e2 2f       	mov	r30, r18
    1654:	f0 e0       	ldi	r31, 0x00	; 0
    1656:	df 01       	movw	r26, r30
    1658:	a4 5c       	subi	r26, 0xC4	; 196
    165a:	bd 4f       	sbci	r27, 0xFD	; 253
    165c:	8c 91       	ld	r24, X
    165e:	ef 53       	subi	r30, 0x3F	; 63
    1660:	fc 4f       	sbci	r31, 0xFC	; 252
    1662:	80 ff       	sbrs	r24, 0
    1664:	04 c0       	rjmp	.+8      	; 0x166e <TaskletC__0__doit+0x5fa>
    1666:	80 81       	ld	r24, Z
    1668:	98 13       	cpse	r25, r24
    166a:	03 c0       	rjmp	.+6      	; 0x1672 <TaskletC__0__doit+0x5fe>
    166c:	21 c0       	rjmp	.+66     	; 0x16b0 <TaskletC__0__doit+0x63c>
    166e:	81 60       	ori	r24, 0x01	; 1
    1670:	8c 93       	st	X, r24
    1672:	90 83       	st	Z, r25
    1674:	ff b6       	in	r15, 0x3f	; 63
    1676:	f8 94       	cli
    1678:	80 91 c0 03 	lds	r24, 0x03C0
    167c:	83 30       	cpi	r24, 0x03	; 3
    167e:	b8 f4       	brcc	.+46     	; 0x16ae <TaskletC__0__doit+0x63a>
    1680:	e0 91 d9 03 	lds	r30, 0x03D9
    1684:	e8 0f       	add	r30, r24
    1686:	e3 30       	cpi	r30, 0x03	; 3
    1688:	08 f0       	brcs	.+2      	; 0x168c <TaskletC__0__doit+0x618>
    168a:	e3 50       	subi	r30, 0x03	; 3
    168c:	f0 e0       	ldi	r31, 0x00	; 0
    168e:	ee 0f       	add	r30, r30
    1690:	ff 1f       	adc	r31, r31
    1692:	e1 5d       	subi	r30, 0xD1	; 209
    1694:	fd 4f       	sbci	r31, 0xFD	; 253
    1696:	70 80       	ld	r7, Z
    1698:	e1 80       	ldd	r14, Z+1	; 0x01
    169a:	51 82       	std	Z+1, r5	; 0x01
    169c:	40 82       	st	Z, r4
    169e:	8f 5f       	subi	r24, 0xFF	; 255
    16a0:	80 93 c0 03 	sts	0x03C0, r24
    16a4:	84 e0       	ldi	r24, 0x04	; 4
    16a6:	0e 94 01 02 	call	0x402	; 0x402 <SchedulerBasicP__TaskBasic__postTask>
    16aa:	47 2c       	mov	r4, r7
    16ac:	5e 2c       	mov	r5, r14
    16ae:	ff be       	out	0x3f, r15	; 63
    16b0:	50 92 3a 02 	sts	0x023A, r5
    16b4:	40 92 39 02 	sts	0x0239, r4
    16b8:	85 c0       	rjmp	.+266    	; 0x17c4 <TaskletC__0__doit+0x750>
    16ba:	9f ef       	ldi	r25, 0xFF	; 255
    16bc:	98 0f       	add	r25, r24
    16be:	93 30       	cpi	r25, 0x03	; 3
    16c0:	08 f0       	brcs	.+2      	; 0x16c4 <TaskletC__0__doit+0x650>
    16c2:	6e c0       	rjmp	.+220    	; 0x17a0 <TaskletC__0__doit+0x72c>
    16c4:	9e ef       	ldi	r25, 0xFE	; 254
    16c6:	98 0f       	add	r25, r24
    16c8:	92 30       	cpi	r25, 0x02	; 2
    16ca:	d8 f5       	brcc	.+118    	; 0x1742 <TaskletC__0__doit+0x6ce>
    16cc:	20 91 71 04 	lds	r18, 0x0471
    16d0:	21 30       	cpi	r18, 0x01	; 1
    16d2:	99 f4       	brne	.+38     	; 0x16fa <TaskletC__0__doit+0x686>
    16d4:	90 91 b2 03 	lds	r25, 0x03B2
    16d8:	91 11       	cpse	r25, r1
    16da:	0f c0       	rjmp	.+30     	; 0x16fa <TaskletC__0__doit+0x686>
    16dc:	29 83       	std	Y+1, r18	; 0x01
    16de:	0e 94 a7 01 	call	0x34e	; 0x34e <HplAtm128GeneralIOPinP__15__IO__clr>
    16e2:	d0 92 b0 02 	sts	0x02B0, r13
    16e6:	29 81       	ldd	r18, Y+1	; 0x01
    16e8:	20 93 b2 03 	sts	0x03B2, r18
    16ec:	8b e2       	ldi	r24, 0x2B	; 43
    16ee:	93 e0       	ldi	r25, 0x03	; 3
    16f0:	0e 94 a3 02 	call	0x546	; 0x546 <Atm128AlarmC__0__Alarm__start>
    16f4:	c0 92 71 04 	sts	0x0471, r12
    16f8:	3e c0       	rjmp	.+124    	; 0x1776 <TaskletC__0__doit+0x702>
    16fa:	83 30       	cpi	r24, 0x03	; 3
    16fc:	11 f5       	brne	.+68     	; 0x1742 <TaskletC__0__doit+0x6ce>
    16fe:	23 30       	cpi	r18, 0x03	; 3
    1700:	01 f5       	brne	.+64     	; 0x1742 <TaskletC__0__doit+0x6ce>
    1702:	0e 94 b1 06 	call	0xd62	; 0xd62 <RF230DriverLayerP__isSpiAcquired>
    1706:	88 23       	and	r24, r24
    1708:	e1 f0       	breq	.+56     	; 0x1742 <TaskletC__0__doit+0x6ce>
    170a:	8f e0       	ldi	r24, 0x0F	; 15
    170c:	0e 94 40 06 	call	0xc80	; 0xc80 <RF230DriverLayerP__readRegister>
    1710:	80 91 81 00 	lds	r24, 0x0081
    1714:	80 64       	ori	r24, 0x40	; 64
    1716:	80 93 81 00 	sts	0x0081, r24
    171a:	80 e2       	ldi	r24, 0x20	; 32
    171c:	86 bb       	out	0x16, r24	; 22
    171e:	80 91 6f 00 	lds	r24, 0x006F
    1722:	80 62       	ori	r24, 0x20	; 32
    1724:	80 93 6f 00 	sts	0x006F, r24
    1728:	60 91 63 02 	lds	r22, 0x0263
    172c:	60 66       	ori	r22, 0x60	; 96
    172e:	88 e0       	ldi	r24, 0x08	; 8
    1730:	0e 94 58 06 	call	0xcb0	; 0xcb0 <RF230DriverLayerP__writeRegister>
    1734:	66 e0       	ldi	r22, 0x06	; 6
    1736:	82 e0       	ldi	r24, 0x02	; 2
    1738:	0e 94 58 06 	call	0xcb0	; 0xcb0 <RF230DriverLayerP__writeRegister>
    173c:	10 93 71 04 	sts	0x0471, r17
    1740:	1a c0       	rjmp	.+52     	; 0x1776 <TaskletC__0__doit+0x702>
    1742:	80 91 2c 02 	lds	r24, 0x022C
    1746:	81 50       	subi	r24, 0x01	; 1
    1748:	82 30       	cpi	r24, 0x02	; 2
    174a:	a8 f4       	brcc	.+42     	; 0x1776 <TaskletC__0__doit+0x702>
    174c:	80 91 71 04 	lds	r24, 0x0471
    1750:	85 30       	cpi	r24, 0x05	; 5
    1752:	89 f4       	brne	.+34     	; 0x1776 <TaskletC__0__doit+0x702>
    1754:	0e 94 b1 06 	call	0xd62	; 0xd62 <RF230DriverLayerP__isSpiAcquired>
    1758:	88 23       	and	r24, r24
    175a:	69 f0       	breq	.+26     	; 0x1776 <TaskletC__0__doit+0x702>
    175c:	63 e0       	ldi	r22, 0x03	; 3
    175e:	82 e0       	ldi	r24, 0x02	; 2
    1760:	0e 94 58 06 	call	0xcb0	; 0xcb0 <RF230DriverLayerP__writeRegister>
    1764:	80 91 6f 00 	lds	r24, 0x006F
    1768:	8f 7d       	andi	r24, 0xDF	; 223
    176a:	80 93 6f 00 	sts	0x006F, r24
    176e:	10 92 cb 03 	sts	0x03CB, r1
    1772:	d0 92 71 04 	sts	0x0471, r13
    1776:	80 91 2c 02 	lds	r24, 0x022C
    177a:	81 30       	cpi	r24, 0x01	; 1
    177c:	41 f4       	brne	.+16     	; 0x178e <TaskletC__0__doit+0x71a>
    177e:	90 91 71 04 	lds	r25, 0x0471
    1782:	93 30       	cpi	r25, 0x03	; 3
    1784:	f9 f4       	brne	.+62     	; 0x17c4 <TaskletC__0__doit+0x750>
    1786:	2f 9a       	sbi	0x05, 7	; 5
    1788:	80 93 71 04 	sts	0x0471, r24
    178c:	06 c0       	rjmp	.+12     	; 0x179a <TaskletC__0__doit+0x726>
    178e:	82 30       	cpi	r24, 0x02	; 2
    1790:	c9 f4       	brne	.+50     	; 0x17c4 <TaskletC__0__doit+0x750>
    1792:	80 91 71 04 	lds	r24, 0x0471
    1796:	83 30       	cpi	r24, 0x03	; 3
    1798:	a9 f4       	brne	.+42     	; 0x17c4 <TaskletC__0__doit+0x750>
    179a:	b0 92 2c 02 	sts	0x022C, r11
    179e:	12 c0       	rjmp	.+36     	; 0x17c4 <TaskletC__0__doit+0x750>
    17a0:	87 30       	cpi	r24, 0x07	; 7
    17a2:	81 f4       	brne	.+32     	; 0x17c4 <TaskletC__0__doit+0x750>
    17a4:	0e 94 b1 06 	call	0xd62	; 0xd62 <RF230DriverLayerP__isSpiAcquired>
    17a8:	88 23       	and	r24, r24
    17aa:	61 f0       	breq	.+24     	; 0x17c4 <TaskletC__0__doit+0x750>
    17ac:	60 91 63 02 	lds	r22, 0x0263
    17b0:	60 66       	ori	r22, 0x60	; 96
    17b2:	88 e0       	ldi	r24, 0x08	; 8
    17b4:	0e 94 58 06 	call	0xcb0	; 0xcb0 <RF230DriverLayerP__writeRegister>
    17b8:	80 91 71 04 	lds	r24, 0x0471
    17bc:	85 30       	cpi	r24, 0x05	; 5
    17be:	69 f7       	brne	.-38     	; 0x179a <TaskletC__0__doit+0x726>
    17c0:	10 93 71 04 	sts	0x0471, r17
    17c4:	80 91 2c 02 	lds	r24, 0x022C
    17c8:	88 30       	cpi	r24, 0x08	; 8
    17ca:	29 f4       	brne	.+10     	; 0x17d6 <TaskletC__0__doit+0x762>
    17cc:	10 92 2c 02 	sts	0x022C, r1
    17d0:	82 e0       	ldi	r24, 0x02	; 2
    17d2:	0e 94 01 02 	call	0x402	; 0x402 <SchedulerBasicP__TaskBasic__postTask>
    17d6:	80 91 2c 02 	lds	r24, 0x022C
    17da:	81 11       	cpse	r24, r1
    17dc:	1d c0       	rjmp	.+58     	; 0x1818 <TaskletC__0__doit+0x7a4>
    17de:	80 91 71 04 	lds	r24, 0x0471
    17e2:	85 30       	cpi	r24, 0x05	; 5
    17e4:	c9 f4       	brne	.+50     	; 0x1818 <TaskletC__0__doit+0x7a4>
    17e6:	80 91 cb 03 	lds	r24, 0x03CB
    17ea:	81 11       	cpse	r24, r1
    17ec:	15 c0       	rjmp	.+42     	; 0x1818 <TaskletC__0__doit+0x7a4>
    17ee:	80 91 41 02 	lds	r24, 0x0241
    17f2:	81 11       	cpse	r24, r1
    17f4:	11 c0       	rjmp	.+34     	; 0x1818 <TaskletC__0__doit+0x7a4>
    17f6:	80 91 9b 02 	lds	r24, 0x029B
    17fa:	81 11       	cpse	r24, r1
    17fc:	0d c0       	rjmp	.+26     	; 0x1818 <TaskletC__0__doit+0x7a4>
    17fe:	80 91 b2 03 	lds	r24, 0x03B2
    1802:	81 11       	cpse	r24, r1
    1804:	09 c0       	rjmp	.+18     	; 0x1818 <TaskletC__0__doit+0x7a4>
    1806:	80 91 9a 02 	lds	r24, 0x029A
    180a:	82 30       	cpi	r24, 0x02	; 2
    180c:	29 f4       	brne	.+10     	; 0x1818 <TaskletC__0__doit+0x7a4>
    180e:	81 e0       	ldi	r24, 0x01	; 1
    1810:	80 93 9a 02 	sts	0x029A, r24
    1814:	0e 94 20 02 	call	0x440	; 0x440 <MessageBufferLayerP__0__sendTask__postTask>
    1818:	80 91 2c 02 	lds	r24, 0x022C
    181c:	81 11       	cpse	r24, r1
    181e:	03 c0       	rjmp	.+6      	; 0x1826 <TaskletC__0__doit+0x7b2>
    1820:	88 e0       	ldi	r24, 0x08	; 8
    1822:	0e 94 01 02 	call	0x402	; 0x402 <SchedulerBasicP__TaskBasic__postTask>
    1826:	8f b7       	in	r24, 0x3f	; 63
    1828:	f8 94       	cli
    182a:	90 91 be 03 	lds	r25, 0x03BE
    182e:	91 30       	cpi	r25, 0x01	; 1
    1830:	b9 f4       	brne	.+46     	; 0x1860 <TaskletC__0__doit+0x7ec>
    1832:	10 92 be 03 	sts	0x03BE, r1
    1836:	8f bf       	out	0x3f, r24	; 63
    1838:	0f 90       	pop	r0
    183a:	0f 90       	pop	r0
    183c:	df 91       	pop	r29
    183e:	cf 91       	pop	r28
    1840:	1f 91       	pop	r17
    1842:	0f 91       	pop	r16
    1844:	ff 90       	pop	r15
    1846:	ef 90       	pop	r14
    1848:	df 90       	pop	r13
    184a:	cf 90       	pop	r12
    184c:	bf 90       	pop	r11
    184e:	af 90       	pop	r10
    1850:	9f 90       	pop	r9
    1852:	8f 90       	pop	r8
    1854:	7f 90       	pop	r7
    1856:	6f 90       	pop	r6
    1858:	5f 90       	pop	r5
    185a:	4f 90       	pop	r4
    185c:	3f 90       	pop	r3
    185e:	08 95       	ret
    1860:	91 e0       	ldi	r25, 0x01	; 1
    1862:	90 93 be 03 	sts	0x03BE, r25
    1866:	8f bf       	out	0x3f, r24	; 63
    1868:	2a cc       	rjmp	.-1964   	; 0x10be <TaskletC__0__doit+0x4a>
    186a:	25 e0       	ldi	r18, 0x05	; 5
    186c:	90 91 9b 02 	lds	r25, 0x029B
    1870:	89 2f       	mov	r24, r25
    1872:	8f 77       	andi	r24, 0x7F	; 127
    1874:	81 30       	cpi	r24, 0x01	; 1
    1876:	09 f0       	breq	.+2      	; 0x187a <TaskletC__0__doit+0x806>
    1878:	6f cc       	rjmp	.-1826   	; 0x1158 <TaskletC__0__doit+0xe4>
    187a:	90 78       	andi	r25, 0x80	; 128
    187c:	92 60       	ori	r25, 0x02	; 2
    187e:	90 93 9b 02 	sts	0x029B, r25
    1882:	80 e1       	ldi	r24, 0x10	; 16
    1884:	98 e0       	ldi	r25, 0x08	; 8
    1886:	0e 94 cc 02 	call	0x598	; 0x598 <RandomCollisionLayerP__0__getBackoff>
    188a:	21 e0       	ldi	r18, 0x01	; 1
    188c:	20 93 b0 02 	sts	0x02B0, r18
    1890:	20 93 b2 03 	sts	0x03B2, r18
    1894:	0e 94 a3 02 	call	0x546	; 0x546 <Atm128AlarmC__0__Alarm__start>
    1898:	94 cc       	rjmp	.-1752   	; 0x11c2 <TaskletC__0__doit+0x14e>
    189a:	10 92 9b 02 	sts	0x029B, r1
    189e:	6e cc       	rjmp	.-1828   	; 0x117c <TaskletC__0__doit+0x108>
    18a0:	80 91 b2 03 	lds	r24, 0x03B2
    18a4:	81 11       	cpse	r24, r1
    18a6:	29 cd       	rjmp	.-1454   	; 0x12fa <TaskletC__0__doit+0x286>
    18a8:	c0 92 b0 02 	sts	0x02B0, r12
    18ac:	81 e0       	ldi	r24, 0x01	; 1
    18ae:	80 93 b2 03 	sts	0x03B2, r24
    18b2:	89 e9       	ldi	r24, 0x99	; 153
    18b4:	93 e0       	ldi	r25, 0x03	; 3
    18b6:	0e 94 a3 02 	call	0x546	; 0x546 <Atm128AlarmC__0__Alarm__start>
    18ba:	c0 92 41 02 	sts	0x0241, r12
    18be:	39 cd       	rjmp	.-1422   	; 0x1332 <TaskletC__0__doit+0x2be>

000018c0 <TaskletC__0__Tasklet__resume>:
    18c0:	9f b7       	in	r25, 0x3f	; 63
    18c2:	f8 94       	cli
    18c4:	80 91 be 03 	lds	r24, 0x03BE
    18c8:	81 50       	subi	r24, 0x01	; 1
    18ca:	80 93 be 03 	sts	0x03BE, r24
    18ce:	80 38       	cpi	r24, 0x80	; 128
    18d0:	11 f0       	breq	.+4      	; 0x18d6 <TaskletC__0__Tasklet__resume+0x16>
    18d2:	9f bf       	out	0x3f, r25	; 63
    18d4:	08 95       	ret
    18d6:	81 e0       	ldi	r24, 0x01	; 1
    18d8:	80 93 be 03 	sts	0x03BE, r24
    18dc:	9f bf       	out	0x3f, r25	; 63
    18de:	0c 94 3a 08 	jmp	0x1074	; 0x1074 <TaskletC__0__doit>

000018e2 <TinyosNetworkLayerC__0__TinyosSend__send>:
    18e2:	0f 93       	push	r16
    18e4:	1f 93       	push	r17
    18e6:	cf 93       	push	r28
    18e8:	df 93       	push	r29
    18ea:	1f 92       	push	r1
    18ec:	cd b7       	in	r28, 0x3d	; 61
    18ee:	de b7       	in	r29, 0x3e	; 62
    18f0:	8c 01       	movw	r16, r24
    18f2:	8f e3       	ldi	r24, 0x3F	; 63
    18f4:	f8 01       	movw	r30, r16
    18f6:	82 87       	std	Z+10, r24	; 0x0a
    18f8:	90 91 2b 02 	lds	r25, 0x022B
    18fc:	9f 5f       	subi	r25, 0xFF	; 255
    18fe:	90 93 2b 02 	sts	0x022B, r25
    1902:	93 83       	std	Z+3, r25	; 0x03
    1904:	0e 94 ab 01 	call	0x356	; 0x356 <TaskletC__0__Tasklet__suspend>
    1908:	80 91 9a 02 	lds	r24, 0x029A
    190c:	81 11       	cpse	r24, r1
    190e:	0d c0       	rjmp	.+26     	; 0x192a <TinyosNetworkLayerC__0__TinyosSend__send+0x48>
    1910:	10 93 b9 03 	sts	0x03B9, r17
    1914:	00 93 b8 03 	sts	0x03B8, r16
    1918:	81 e0       	ldi	r24, 0x01	; 1
    191a:	80 93 9a 02 	sts	0x029A, r24
    191e:	10 92 b3 03 	sts	0x03B3, r1
    1922:	0e 94 20 02 	call	0x440	; 0x440 <MessageBufferLayerP__0__sendTask__postTask>
    1926:	80 e0       	ldi	r24, 0x00	; 0
    1928:	01 c0       	rjmp	.+2      	; 0x192c <TinyosNetworkLayerC__0__TinyosSend__send+0x4a>
    192a:	85 e0       	ldi	r24, 0x05	; 5
    192c:	89 83       	std	Y+1, r24	; 0x01
    192e:	0e 94 60 0c 	call	0x18c0	; 0x18c0 <TaskletC__0__Tasklet__resume>
    1932:	89 81       	ldd	r24, Y+1	; 0x01
    1934:	0f 90       	pop	r0
    1936:	df 91       	pop	r29
    1938:	cf 91       	pop	r28
    193a:	1f 91       	pop	r17
    193c:	0f 91       	pop	r16
    193e:	08 95       	ret

00001940 <ActiveMessageLayerP__0__AMSend__send>:
    1940:	ff 92       	push	r15
    1942:	0f 93       	push	r16
    1944:	1f 93       	push	r17
    1946:	cf 93       	push	r28
    1948:	df 93       	push	r29
    194a:	ea 01       	movw	r28, r20
    194c:	2d 31       	cpi	r18, 0x1D	; 29
    194e:	08 f0       	brcs	.+2      	; 0x1952 <ActiveMessageLayerP__0__AMSend__send+0x12>
    1950:	67 c0       	rjmp	.+206    	; 0x1a20 <ActiveMessageLayerP__0__AMSend__send+0xe0>
    1952:	ea 81       	ldd	r30, Y+2	; 0x02
    1954:	f0 e0       	ldi	r31, 0x00	; 0
    1956:	fe 2f       	mov	r31, r30
    1958:	ee 27       	eor	r30, r30
    195a:	99 81       	ldd	r25, Y+1	; 0x01
    195c:	e9 2b       	or	r30, r25
    195e:	af 01       	movw	r20, r30
    1960:	47 74       	andi	r20, 0x47	; 71
    1962:	5c 7c       	andi	r21, 0xCC	; 204
    1964:	41 34       	cpi	r20, 0x41	; 65
    1966:	58 48       	sbci	r21, 0x88	; 136
    1968:	39 f0       	breq	.+14     	; 0x1978 <ActiveMessageLayerP__0__AMSend__send+0x38>
    196a:	e0 73       	andi	r30, 0x30	; 48
    196c:	ff 27       	eor	r31, r31
    196e:	e1 64       	ori	r30, 0x41	; 65
    1970:	f8 68       	ori	r31, 0x88	; 136
    1972:	e9 83       	std	Y+1, r30	; 0x01
    1974:	98 e8       	ldi	r25, 0x88	; 136
    1976:	9a 83       	std	Y+2, r25	; 0x02
    1978:	8b 01       	movw	r16, r22
    197a:	f8 2e       	mov	r15, r24
    197c:	23 5f       	subi	r18, 0xF3	; 243
    197e:	28 83       	st	Y, r18
    1980:	0e 94 70 02 	call	0x4e0	; 0x4e0 <ActiveMessageAddressC__amAddress>
    1984:	88 87       	std	Y+8, r24	; 0x08
    1986:	99 87       	std	Y+9, r25	; 0x09
    1988:	9f b7       	in	r25, 0x3f	; 63
    198a:	f8 94       	cli
    198c:	80 91 0f 02 	lds	r24, 0x020F
    1990:	9f bf       	out	0x3f, r25	; 63
    1992:	8c 83       	std	Y+4, r24	; 0x04
    1994:	1d 82       	std	Y+5, r1	; 0x05
    1996:	fb 86       	std	Y+11, r15	; 0x0b
    1998:	0e 83       	std	Y+6, r16	; 0x06
    199a:	1f 83       	std	Y+7, r17	; 0x07
    199c:	8f b7       	in	r24, 0x3f	; 63
    199e:	f8 94       	cli
    19a0:	90 91 29 02 	lds	r25, 0x0229
    19a4:	91 11       	cpse	r25, r1
    19a6:	0f c0       	rjmp	.+30     	; 0x19c6 <ActiveMessageLayerP__0__AMSend__send+0x86>
    19a8:	92 e0       	ldi	r25, 0x02	; 2
    19aa:	90 93 29 02 	sts	0x0229, r25
    19ae:	10 92 0c 02 	sts	0x020C, r1
    19b2:	8f bf       	out	0x3f, r24	; 63
    19b4:	ce 01       	movw	r24, r28
    19b6:	0e 94 71 0c 	call	0x18e2	; 0x18e2 <TinyosNetworkLayerC__0__TinyosSend__send>
    19ba:	c8 2f       	mov	r28, r24
    19bc:	88 23       	and	r24, r24
    19be:	89 f1       	breq	.+98     	; 0x1a22 <ActiveMessageLayerP__0__AMSend__send+0xe2>
    19c0:	0e 94 01 05 	call	0xa02	; 0xa02 <AutoResourceAcquireLayerC__0__Resource__release>
    19c4:	2e c0       	rjmp	.+92     	; 0x1a22 <ActiveMessageLayerP__0__AMSend__send+0xe2>
    19c6:	8f bf       	out	0x3f, r24	; 63
    19c8:	d0 93 65 02 	sts	0x0265, r29
    19cc:	c0 93 64 02 	sts	0x0264, r28
    19d0:	df b7       	in	r29, 0x3f	; 63
    19d2:	f8 94       	cli
    19d4:	c0 91 29 02 	lds	r28, 0x0229
    19d8:	c1 11       	cpse	r28, r1
    19da:	08 c0       	rjmp	.+16     	; 0x19ec <ActiveMessageLayerP__0__AMSend__send+0xac>
    19dc:	81 e0       	ldi	r24, 0x01	; 1
    19de:	80 93 29 02 	sts	0x0229, r24
    19e2:	10 92 0c 02 	sts	0x020C, r1
    19e6:	0e 94 01 02 	call	0x402	; 0x402 <SchedulerBasicP__TaskBasic__postTask>
    19ea:	18 c0       	rjmp	.+48     	; 0x1a1c <ActiveMessageLayerP__0__AMSend__send+0xdc>
    19ec:	80 91 66 02 	lds	r24, 0x0266
    19f0:	8f 3f       	cpi	r24, 0xFF	; 255
    19f2:	99 f4       	brne	.+38     	; 0x1a1a <ActiveMessageLayerP__0__AMSend__send+0xda>
    19f4:	e0 91 0d 02 	lds	r30, 0x020D
    19f8:	ee 23       	and	r30, r30
    19fa:	79 f0       	breq	.+30     	; 0x1a1a <ActiveMessageLayerP__0__AMSend__send+0xda>
    19fc:	80 91 0e 02 	lds	r24, 0x020E
    1a00:	8f 3f       	cpi	r24, 0xFF	; 255
    1a02:	19 f4       	brne	.+6      	; 0x1a0a <ActiveMessageLayerP__0__AMSend__send+0xca>
    1a04:	10 92 0e 02 	sts	0x020E, r1
    1a08:	04 c0       	rjmp	.+8      	; 0x1a12 <ActiveMessageLayerP__0__AMSend__send+0xd2>
    1a0a:	f0 e0       	ldi	r31, 0x00	; 0
    1a0c:	ea 59       	subi	r30, 0x9A	; 154
    1a0e:	fd 4f       	sbci	r31, 0xFD	; 253
    1a10:	10 82       	st	Z, r1
    1a12:	10 92 0d 02 	sts	0x020D, r1
    1a16:	c0 e0       	ldi	r28, 0x00	; 0
    1a18:	01 c0       	rjmp	.+2      	; 0x1a1c <ActiveMessageLayerP__0__AMSend__send+0xdc>
    1a1a:	c5 e0       	ldi	r28, 0x05	; 5
    1a1c:	df bf       	out	0x3f, r29	; 63
    1a1e:	01 c0       	rjmp	.+2      	; 0x1a22 <ActiveMessageLayerP__0__AMSend__send+0xe2>
    1a20:	c6 e0       	ldi	r28, 0x06	; 6
    1a22:	8c 2f       	mov	r24, r28
    1a24:	df 91       	pop	r29
    1a26:	cf 91       	pop	r28
    1a28:	1f 91       	pop	r17
    1a2a:	0f 91       	pop	r16
    1a2c:	ff 90       	pop	r15
    1a2e:	08 95       	ret

00001a30 <AMQueueImplP__0__sendDone.isra.129>:
    1a30:	e8 2f       	mov	r30, r24
    1a32:	f0 e0       	ldi	r31, 0x00	; 0
    1a34:	ee 0f       	add	r30, r30
    1a36:	ff 1f       	adc	r31, r31
    1a38:	e3 5c       	subi	r30, 0xC3	; 195
    1a3a:	fc 4f       	sbci	r31, 0xFC	; 252
    1a3c:	11 82       	std	Z+1, r1	; 0x01
    1a3e:	10 82       	st	Z, r1
    1a40:	91 e0       	ldi	r25, 0x01	; 1
    1a42:	90 93 07 02 	sts	0x0207, r25
    1a46:	81 11       	cpse	r24, r1
    1a48:	03 c0       	rjmp	.+6      	; 0x1a50 <AMQueueImplP__0__sendDone.isra.129+0x20>
    1a4a:	86 2f       	mov	r24, r22
    1a4c:	0c 94 32 05 	jmp	0xa64	; 0xa64 <InterferenceC__AMSend__sendDone.isra.125>
    1a50:	08 95       	ret

00001a52 <AMQueueEntryP__0__AMSend__send.constprop.143>:
    1a52:	8f ef       	ldi	r24, 0xFF	; 255
    1a54:	80 93 6d 02 	sts	0x026D, r24
    1a58:	80 93 6e 02 	sts	0x026E, r24
    1a5c:	8b e0       	ldi	r24, 0x0B	; 11
    1a5e:	80 93 72 02 	sts	0x0272, r24
    1a62:	80 91 3d 03 	lds	r24, 0x033D
    1a66:	90 91 3e 03 	lds	r25, 0x033E
    1a6a:	89 2b       	or	r24, r25
    1a6c:	09 f5       	brne	.+66     	; 0x1ab0 <AMQueueEntryP__0__AMSend__send.constprop.143+0x5e>
    1a6e:	87 e6       	ldi	r24, 0x67	; 103
    1a70:	92 e0       	ldi	r25, 0x02	; 2
    1a72:	90 93 3e 03 	sts	0x033E, r25
    1a76:	80 93 3d 03 	sts	0x033D, r24
    1a7a:	89 e2       	ldi	r24, 0x29	; 41
    1a7c:	80 93 67 02 	sts	0x0267, r24
    1a80:	80 91 07 02 	lds	r24, 0x0207
    1a84:	88 23       	and	r24, r24
    1a86:	b9 f0       	breq	.+46     	; 0x1ab6 <AMQueueEntryP__0__AMSend__send.constprop.143+0x64>
    1a88:	10 92 07 02 	sts	0x0207, r1
    1a8c:	2c e1       	ldi	r18, 0x1C	; 28
    1a8e:	47 e6       	ldi	r20, 0x67	; 103
    1a90:	52 e0       	ldi	r21, 0x02	; 2
    1a92:	6f ef       	ldi	r22, 0xFF	; 255
    1a94:	7f ef       	ldi	r23, 0xFF	; 255
    1a96:	8b e0       	ldi	r24, 0x0B	; 11
    1a98:	0e 94 a0 0c 	call	0x1940	; 0x1940 <ActiveMessageLayerP__0__AMSend__send>
    1a9c:	88 23       	and	r24, r24
    1a9e:	51 f0       	breq	.+20     	; 0x1ab4 <AMQueueEntryP__0__AMSend__send.constprop.143+0x62>
    1aa0:	91 e0       	ldi	r25, 0x01	; 1
    1aa2:	90 93 07 02 	sts	0x0207, r25
    1aa6:	10 92 3e 03 	sts	0x033E, r1
    1aaa:	10 92 3d 03 	sts	0x033D, r1
    1aae:	08 95       	ret
    1ab0:	85 e0       	ldi	r24, 0x05	; 5
    1ab2:	08 95       	ret
    1ab4:	80 e0       	ldi	r24, 0x00	; 0
    1ab6:	08 95       	ret

00001ab8 <VirtualizeTimerC__0__fireTimers>:
    1ab8:	8f 92       	push	r8
    1aba:	9f 92       	push	r9
    1abc:	af 92       	push	r10
    1abe:	bf 92       	push	r11
    1ac0:	cf 92       	push	r12
    1ac2:	df 92       	push	r13
    1ac4:	ef 92       	push	r14
    1ac6:	ff 92       	push	r15
    1ac8:	0f 93       	push	r16
    1aca:	1f 93       	push	r17
    1acc:	40 91 51 03 	lds	r20, 0x0351
    1ad0:	41 ff       	sbrs	r20, 1
    1ad2:	4a c0       	rjmp	.+148    	; 0x1b68 <VirtualizeTimerC__0__fireTimers+0xb0>
    1ad4:	80 90 49 03 	lds	r8, 0x0349
    1ad8:	90 90 4a 03 	lds	r9, 0x034A
    1adc:	a0 90 4b 03 	lds	r10, 0x034B
    1ae0:	b0 90 4c 03 	lds	r11, 0x034C
    1ae4:	c0 90 4d 03 	lds	r12, 0x034D
    1ae8:	d0 90 4e 03 	lds	r13, 0x034E
    1aec:	e0 90 4f 03 	lds	r14, 0x034F
    1af0:	f0 90 50 03 	lds	r15, 0x0350
    1af4:	8b 01       	movw	r16, r22
    1af6:	9c 01       	movw	r18, r24
    1af8:	08 19       	sub	r16, r8
    1afa:	19 09       	sbc	r17, r9
    1afc:	2a 09       	sbc	r18, r10
    1afe:	3b 09       	sbc	r19, r11
    1b00:	0c 15       	cp	r16, r12
    1b02:	1d 05       	cpc	r17, r13
    1b04:	2e 05       	cpc	r18, r14
    1b06:	3f 05       	cpc	r19, r15
    1b08:	78 f1       	brcs	.+94     	; 0x1b68 <VirtualizeTimerC__0__fireTimers+0xb0>
    1b0a:	40 ff       	sbrs	r20, 0
    1b0c:	05 c0       	rjmp	.+10     	; 0x1b18 <VirtualizeTimerC__0__fireTimers+0x60>
    1b0e:	84 2f       	mov	r24, r20
    1b10:	8d 7f       	andi	r24, 0xFD	; 253
    1b12:	80 93 51 03 	sts	0x0351, r24
    1b16:	0e c0       	rjmp	.+28     	; 0x1b34 <VirtualizeTimerC__0__fireTimers+0x7c>
    1b18:	b7 01       	movw	r22, r14
    1b1a:	a6 01       	movw	r20, r12
    1b1c:	48 0d       	add	r20, r8
    1b1e:	59 1d       	adc	r21, r9
    1b20:	6a 1d       	adc	r22, r10
    1b22:	7b 1d       	adc	r23, r11
    1b24:	40 93 49 03 	sts	0x0349, r20
    1b28:	50 93 4a 03 	sts	0x034A, r21
    1b2c:	60 93 4b 03 	sts	0x034B, r22
    1b30:	70 93 4c 03 	sts	0x034C, r23
    1b34:	80 91 6e 04 	lds	r24, 0x046E
    1b38:	81 11       	cpse	r24, r1
    1b3a:	10 c0       	rjmp	.+32     	; 0x1b5c <VirtualizeTimerC__0__fireTimers+0xa4>
    1b3c:	8c e1       	ldi	r24, 0x1C	; 28
    1b3e:	e5 e1       	ldi	r30, 0x15	; 21
    1b40:	f3 e0       	ldi	r31, 0x03	; 3
    1b42:	a3 e7       	ldi	r26, 0x73	; 115
    1b44:	b2 e0       	ldi	r27, 0x02	; 2
    1b46:	01 90       	ld	r0, Z+
    1b48:	0d 92       	st	X+, r0
    1b4a:	8a 95       	dec	r24
    1b4c:	e1 f7       	brne	.-8      	; 0x1b46 <VirtualizeTimerC__0__fireTimers+0x8e>
    1b4e:	0e 94 29 0d 	call	0x1a52	; 0x1a52 <AMQueueEntryP__0__AMSend__send.constprop.143>
    1b52:	81 11       	cpse	r24, r1
    1b54:	03 c0       	rjmp	.+6      	; 0x1b5c <VirtualizeTimerC__0__fireTimers+0xa4>
    1b56:	81 e0       	ldi	r24, 0x01	; 1
    1b58:	80 93 6e 04 	sts	0x046E, r24
    1b5c:	80 91 6e 04 	lds	r24, 0x046E
    1b60:	81 11       	cpse	r24, r1
    1b62:	02 c0       	rjmp	.+4      	; 0x1b68 <VirtualizeTimerC__0__fireTimers+0xb0>
    1b64:	0e 94 47 02 	call	0x48e	; 0x48e <HplAtm128GeneralIOPinP__2__IO__toggle>
    1b68:	87 e0       	ldi	r24, 0x07	; 7
    1b6a:	1f 91       	pop	r17
    1b6c:	0f 91       	pop	r16
    1b6e:	ff 90       	pop	r15
    1b70:	ef 90       	pop	r14
    1b72:	df 90       	pop	r13
    1b74:	cf 90       	pop	r12
    1b76:	bf 90       	pop	r11
    1b78:	af 90       	pop	r10
    1b7a:	9f 90       	pop	r9
    1b7c:	8f 90       	pop	r8
    1b7e:	0c 94 01 02 	jmp	0x402	; 0x402 <SchedulerBasicP__TaskBasic__postTask>

00001b82 <TaskletC__0__Tasklet__schedule>:
    1b82:	9f b7       	in	r25, 0x3f	; 63
    1b84:	f8 94       	cli
    1b86:	80 91 be 03 	lds	r24, 0x03BE
    1b8a:	88 23       	and	r24, r24
    1b8c:	29 f0       	breq	.+10     	; 0x1b98 <TaskletC__0__Tasklet__schedule+0x16>
    1b8e:	80 68       	ori	r24, 0x80	; 128
    1b90:	80 93 be 03 	sts	0x03BE, r24
    1b94:	9f bf       	out	0x3f, r25	; 63
    1b96:	08 95       	ret
    1b98:	81 e0       	ldi	r24, 0x01	; 1
    1b9a:	80 93 be 03 	sts	0x03BE, r24
    1b9e:	9f bf       	out	0x3f, r25	; 63
    1ba0:	0c 94 3a 08 	jmp	0x1074	; 0x1074 <TaskletC__0__doit>

00001ba4 <SchedulerBasicP__TaskBasic__runTask>:
    1ba4:	2f 92       	push	r2
    1ba6:	3f 92       	push	r3
    1ba8:	4f 92       	push	r4
    1baa:	5f 92       	push	r5
    1bac:	6f 92       	push	r6
    1bae:	7f 92       	push	r7
    1bb0:	8f 92       	push	r8
    1bb2:	9f 92       	push	r9
    1bb4:	af 92       	push	r10
    1bb6:	bf 92       	push	r11
    1bb8:	cf 92       	push	r12
    1bba:	df 92       	push	r13
    1bbc:	ef 92       	push	r14
    1bbe:	ff 92       	push	r15
    1bc0:	0f 93       	push	r16
    1bc2:	1f 93       	push	r17
    1bc4:	cf 93       	push	r28
    1bc6:	df 93       	push	r29
    1bc8:	1f 92       	push	r1
    1bca:	cd b7       	in	r28, 0x3d	; 61
    1bcc:	de b7       	in	r29, 0x3e	; 62
    1bce:	90 e0       	ldi	r25, 0x00	; 0
    1bd0:	85 31       	cpi	r24, 0x15	; 21
    1bd2:	91 05       	cpc	r25, r1
    1bd4:	08 f0       	brcs	.+2      	; 0x1bd8 <SchedulerBasicP__TaskBasic__runTask+0x34>
    1bd6:	f7 c4       	rjmp	.+2542   	; 0x25c6 <__stack+0x3c7>
    1bd8:	fc 01       	movw	r30, r24
    1bda:	ea 59       	subi	r30, 0x9A	; 154
    1bdc:	ff 4f       	sbci	r31, 0xFF	; 255
    1bde:	0c 94 67 19 	jmp	0x32ce	; 0x32ce <__tablejump2__>
    1be2:	80 91 6e 04 	lds	r24, 0x046E
    1be6:	81 11       	cpse	r24, r1
    1be8:	10 c0       	rjmp	.+32     	; 0x1c0a <SchedulerBasicP__TaskBasic__runTask+0x66>
    1bea:	8c e1       	ldi	r24, 0x1C	; 28
    1bec:	e5 e1       	ldi	r30, 0x15	; 21
    1bee:	f3 e0       	ldi	r31, 0x03	; 3
    1bf0:	a3 e7       	ldi	r26, 0x73	; 115
    1bf2:	b2 e0       	ldi	r27, 0x02	; 2
    1bf4:	01 90       	ld	r0, Z+
    1bf6:	0d 92       	st	X+, r0
    1bf8:	8a 95       	dec	r24
    1bfa:	e1 f7       	brne	.-8      	; 0x1bf4 <SchedulerBasicP__TaskBasic__runTask+0x50>
    1bfc:	0e 94 29 0d 	call	0x1a52	; 0x1a52 <AMQueueEntryP__0__AMSend__send.constprop.143>
    1c00:	81 11       	cpse	r24, r1
    1c02:	03 c0       	rjmp	.+6      	; 0x1c0a <SchedulerBasicP__TaskBasic__runTask+0x66>
    1c04:	81 e0       	ldi	r24, 0x01	; 1
    1c06:	80 93 6e 04 	sts	0x046E, r24
    1c0a:	80 91 6e 04 	lds	r24, 0x046E
    1c0e:	81 11       	cpse	r24, r1
    1c10:	da c4       	rjmp	.+2484   	; 0x25c6 <__stack+0x3c7>
    1c12:	0f 90       	pop	r0
    1c14:	df 91       	pop	r29
    1c16:	cf 91       	pop	r28
    1c18:	1f 91       	pop	r17
    1c1a:	0f 91       	pop	r16
    1c1c:	ff 90       	pop	r15
    1c1e:	ef 90       	pop	r14
    1c20:	df 90       	pop	r13
    1c22:	cf 90       	pop	r12
    1c24:	bf 90       	pop	r11
    1c26:	af 90       	pop	r10
    1c28:	9f 90       	pop	r9
    1c2a:	8f 90       	pop	r8
    1c2c:	7f 90       	pop	r7
    1c2e:	6f 90       	pop	r6
    1c30:	5f 90       	pop	r5
    1c32:	4f 90       	pop	r4
    1c34:	3f 90       	pop	r3
    1c36:	2f 90       	pop	r2
    1c38:	0c 94 47 02 	jmp	0x48e	; 0x48e <HplAtm128GeneralIOPinP__2__IO__toggle>
    1c3c:	8f b7       	in	r24, 0x3f	; 63
    1c3e:	f8 94       	cli
    1c40:	92 e0       	ldi	r25, 0x02	; 2
    1c42:	90 93 29 02 	sts	0x0229, r25
    1c46:	8f bf       	out	0x3f, r24	; 63
    1c48:	80 91 0c 02 	lds	r24, 0x020C
    1c4c:	81 11       	cpse	r24, r1
    1c4e:	bb c4       	rjmp	.+2422   	; 0x25c6 <__stack+0x3c7>
    1c50:	80 91 64 02 	lds	r24, 0x0264
    1c54:	90 91 65 02 	lds	r25, 0x0265
    1c58:	0e 94 71 0c 	call	0x18e2	; 0x18e2 <TinyosNetworkLayerC__0__TinyosSend__send>
    1c5c:	88 23       	and	r24, r24
    1c5e:	09 f4       	brne	.+2      	; 0x1c62 <SchedulerBasicP__TaskBasic__runTask+0xbe>
    1c60:	b2 c4       	rjmp	.+2404   	; 0x25c6 <__stack+0x3c7>
    1c62:	89 83       	std	Y+1, r24	; 0x01
    1c64:	0e 94 01 05 	call	0xa02	; 0xa02 <AutoResourceAcquireLayerC__0__Resource__release>
    1c68:	80 91 64 02 	lds	r24, 0x0264
    1c6c:	90 91 65 02 	lds	r25, 0x0265
    1c70:	20 91 07 02 	lds	r18, 0x0207
    1c74:	69 81       	ldd	r22, Y+1	; 0x01
    1c76:	21 11       	cpse	r18, r1
    1c78:	a6 c4       	rjmp	.+2380   	; 0x25c6 <__stack+0x3c7>
    1c7a:	20 91 3d 03 	lds	r18, 0x033D
    1c7e:	30 91 3e 03 	lds	r19, 0x033E
    1c82:	28 17       	cp	r18, r24
    1c84:	39 07       	cpc	r19, r25
    1c86:	09 f0       	breq	.+2      	; 0x1c8a <SchedulerBasicP__TaskBasic__runTask+0xe6>
    1c88:	9e c4       	rjmp	.+2364   	; 0x25c6 <__stack+0x3c7>
    1c8a:	84 c0       	rjmp	.+264    	; 0x1d94 <SchedulerBasicP__TaskBasic__runTask+0x1f0>
    1c8c:	80 91 9a 02 	lds	r24, 0x029A
    1c90:	10 92 9a 02 	sts	0x029A, r1
    1c94:	85 30       	cpi	r24, 0x05	; 5
    1c96:	d9 f4       	brne	.+54     	; 0x1cce <SchedulerBasicP__TaskBasic__runTask+0x12a>
    1c98:	8f b7       	in	r24, 0x3f	; 63
    1c9a:	f8 94       	cli
    1c9c:	10 92 2a 02 	sts	0x022A, r1
    1ca0:	8f bf       	out	0x3f, r24	; 63
    1ca2:	8c e1       	ldi	r24, 0x1C	; 28
    1ca4:	e5 e1       	ldi	r30, 0x15	; 21
    1ca6:	f3 e0       	ldi	r31, 0x03	; 3
    1ca8:	df 01       	movw	r26, r30
    1caa:	1d 92       	st	X+, r1
    1cac:	8a 95       	dec	r24
    1cae:	e9 f7       	brne	.-6      	; 0x1caa <SchedulerBasicP__TaskBasic__runTask+0x106>
    1cb0:	99 e6       	ldi	r25, 0x69	; 105
    1cb2:	90 93 1a 03 	sts	0x031A, r25
    1cb6:	83 e2       	ldi	r24, 0x23	; 35
    1cb8:	80 93 1b 03 	sts	0x031B, r24
    1cbc:	90 93 1c 03 	sts	0x031C, r25
    1cc0:	80 93 1d 03 	sts	0x031D, r24
    1cc4:	8f e0       	ldi	r24, 0x0F	; 15
    1cc6:	80 93 19 03 	sts	0x0319, r24
    1cca:	80 e0       	ldi	r24, 0x00	; 0
    1ccc:	ea c3       	rjmp	.+2004   	; 0x24a2 <__stack+0x2a3>
    1cce:	9a ef       	ldi	r25, 0xFA	; 250
    1cd0:	98 0f       	add	r25, r24
    1cd2:	92 30       	cpi	r25, 0x02	; 2
    1cd4:	08 f4       	brcc	.+2      	; 0x1cd8 <SchedulerBasicP__TaskBasic__runTask+0x134>
    1cd6:	77 c4       	rjmp	.+2286   	; 0x25c6 <__stack+0x3c7>
    1cd8:	80 93 9a 02 	sts	0x029A, r24
    1cdc:	74 c4       	rjmp	.+2280   	; 0x25c6 <__stack+0x3c7>
    1cde:	0e 94 ab 01 	call	0x356	; 0x356 <TaskletC__0__Tasklet__suspend>
    1ce2:	00 91 9a 02 	lds	r16, 0x029A
    1ce6:	01 30       	cpi	r16, 0x01	; 1
    1ce8:	91 f5       	brne	.+100    	; 0x1d4e <SchedulerBasicP__TaskBasic__runTask+0x1aa>
    1cea:	80 91 b3 03 	lds	r24, 0x03B3
    1cee:	8f 5f       	subi	r24, 0xFF	; 255
    1cf0:	80 93 b3 03 	sts	0x03B3, r24
    1cf4:	86 30       	cpi	r24, 0x06	; 6
    1cf6:	58 f5       	brcc	.+86     	; 0x1d4e <SchedulerBasicP__TaskBasic__runTask+0x1aa>
    1cf8:	80 91 b8 03 	lds	r24, 0x03B8
    1cfc:	90 91 b9 03 	lds	r25, 0x03B9
    1d00:	20 91 9b 02 	lds	r18, 0x029B
    1d04:	21 11       	cpse	r18, r1
    1d06:	15 c0       	rjmp	.+42     	; 0x1d32 <SchedulerBasicP__TaskBasic__runTask+0x18e>
    1d08:	10 91 b2 03 	lds	r17, 0x03B2
    1d0c:	11 11       	cpse	r17, r1
    1d0e:	11 c0       	rjmp	.+34     	; 0x1d32 <SchedulerBasicP__TaskBasic__runTask+0x18e>
    1d10:	90 93 98 02 	sts	0x0298, r25
    1d14:	80 93 97 02 	sts	0x0297, r24
    1d18:	00 93 9b 02 	sts	0x029B, r16
    1d1c:	8b ed       	ldi	r24, 0xDB	; 219
    1d1e:	91 e1       	ldi	r25, 0x11	; 17
    1d20:	0e 94 cc 02 	call	0x598	; 0x598 <RandomCollisionLayerP__0__getBackoff>
    1d24:	00 93 b0 02 	sts	0x02B0, r16
    1d28:	00 93 b2 03 	sts	0x03B2, r16
    1d2c:	0e 94 a3 02 	call	0x546	; 0x546 <Atm128AlarmC__0__Alarm__start>
    1d30:	01 c0       	rjmp	.+2      	; 0x1d34 <SchedulerBasicP__TaskBasic__runTask+0x190>
    1d32:	15 e0       	ldi	r17, 0x05	; 5
    1d34:	10 93 e0 03 	sts	0x03E0, r17
    1d38:	11 11       	cpse	r17, r1
    1d3a:	04 c0       	rjmp	.+8      	; 0x1d44 <SchedulerBasicP__TaskBasic__runTask+0x1a0>
    1d3c:	83 e0       	ldi	r24, 0x03	; 3
    1d3e:	80 93 9a 02 	sts	0x029A, r24
    1d42:	08 c0       	rjmp	.+16     	; 0x1d54 <SchedulerBasicP__TaskBasic__runTask+0x1b0>
    1d44:	82 e0       	ldi	r24, 0x02	; 2
    1d46:	80 93 9a 02 	sts	0x029A, r24
    1d4a:	10 e0       	ldi	r17, 0x00	; 0
    1d4c:	03 c0       	rjmp	.+6      	; 0x1d54 <SchedulerBasicP__TaskBasic__runTask+0x1b0>
    1d4e:	10 92 9a 02 	sts	0x029A, r1
    1d52:	11 e0       	ldi	r17, 0x01	; 1
    1d54:	0e 94 60 0c 	call	0x18c0	; 0x18c0 <TaskletC__0__Tasklet__resume>
    1d58:	11 23       	and	r17, r17
    1d5a:	09 f4       	brne	.+2      	; 0x1d5e <SchedulerBasicP__TaskBasic__runTask+0x1ba>
    1d5c:	34 c4       	rjmp	.+2152   	; 0x25c6 <__stack+0x3c7>
    1d5e:	60 91 e0 03 	lds	r22, 0x03E0
    1d62:	00 91 b8 03 	lds	r16, 0x03B8
    1d66:	10 91 b9 03 	lds	r17, 0x03B9
    1d6a:	f8 01       	movw	r30, r16
    1d6c:	82 85       	ldd	r24, Z+10	; 0x0a
    1d6e:	8f 33       	cpi	r24, 0x3F	; 63
    1d70:	09 f0       	breq	.+2      	; 0x1d74 <SchedulerBasicP__TaskBasic__runTask+0x1d0>
    1d72:	29 c4       	rjmp	.+2130   	; 0x25c6 <__stack+0x3c7>
    1d74:	69 83       	std	Y+1, r22	; 0x01
    1d76:	0e 94 01 05 	call	0xa02	; 0xa02 <AutoResourceAcquireLayerC__0__Resource__release>
    1d7a:	80 91 07 02 	lds	r24, 0x0207
    1d7e:	69 81       	ldd	r22, Y+1	; 0x01
    1d80:	81 11       	cpse	r24, r1
    1d82:	21 c4       	rjmp	.+2114   	; 0x25c6 <__stack+0x3c7>
    1d84:	80 91 3d 03 	lds	r24, 0x033D
    1d88:	90 91 3e 03 	lds	r25, 0x033E
    1d8c:	80 17       	cp	r24, r16
    1d8e:	91 07       	cpc	r25, r17
    1d90:	09 f0       	breq	.+2      	; 0x1d94 <SchedulerBasicP__TaskBasic__runTask+0x1f0>
    1d92:	19 c4       	rjmp	.+2098   	; 0x25c6 <__stack+0x3c7>
    1d94:	80 e0       	ldi	r24, 0x00	; 0
    1d96:	7b c2       	rjmp	.+1270   	; 0x228e <__stack+0x8f>
    1d98:	e0 91 d9 03 	lds	r30, 0x03D9
    1d9c:	f0 e0       	ldi	r31, 0x00	; 0
    1d9e:	ee 0f       	add	r30, r30
    1da0:	ff 1f       	adc	r31, r31
    1da2:	e1 5d       	subi	r30, 0xD1	; 209
    1da4:	fd 4f       	sbci	r31, 0xFD	; 253
    1da6:	00 81       	ld	r16, Z
    1da8:	11 81       	ldd	r17, Z+1	; 0x01
    1daa:	8f bf       	out	0x3f, r24	; 63
    1dac:	d8 01       	movw	r26, r16
    1dae:	8c 91       	ld	r24, X
    1db0:	9e ef       	ldi	r25, 0xFE	; 254
    1db2:	98 0f       	add	r25, r24
    1db4:	99 30       	cpi	r25, 0x09	; 9
    1db6:	f8 f4       	brcc	.+62     	; 0x1df6 <SchedulerBasicP__TaskBasic__runTask+0x252>
    1db8:	9f b7       	in	r25, 0x3f	; 63
    1dba:	f8 94       	cli
    1dbc:	80 91 d9 03 	lds	r24, 0x03D9
    1dc0:	e8 2f       	mov	r30, r24
    1dc2:	f0 e0       	ldi	r31, 0x00	; 0
    1dc4:	ee 0f       	add	r30, r30
    1dc6:	ff 1f       	adc	r31, r31
    1dc8:	e1 5d       	subi	r30, 0xD1	; 209
    1dca:	fd 4f       	sbci	r31, 0xFD	; 253
    1dcc:	11 83       	std	Z+1, r17	; 0x01
    1dce:	00 83       	st	Z, r16
    1dd0:	8f 5f       	subi	r24, 0xFF	; 255
    1dd2:	83 30       	cpi	r24, 0x03	; 3
    1dd4:	08 f0       	brcs	.+2      	; 0x1dd8 <SchedulerBasicP__TaskBasic__runTask+0x234>
    1dd6:	3e c0       	rjmp	.+124    	; 0x1e54 <SchedulerBasicP__TaskBasic__runTask+0x2b0>
    1dd8:	80 93 d9 03 	sts	0x03D9, r24
    1ddc:	80 91 c0 03 	lds	r24, 0x03C0
    1de0:	81 50       	subi	r24, 0x01	; 1
    1de2:	80 93 c0 03 	sts	0x03C0, r24
    1de6:	9f bf       	out	0x3f, r25	; 63
    1de8:	8f b7       	in	r24, 0x3f	; 63
    1dea:	f8 94       	cli
    1dec:	90 91 c0 03 	lds	r25, 0x03C0
    1df0:	91 11       	cpse	r25, r1
    1df2:	d2 cf       	rjmp	.-92     	; 0x1d98 <SchedulerBasicP__TaskBasic__runTask+0x1f4>
    1df4:	7c c3       	rjmp	.+1784   	; 0x24ee <__stack+0x2ef>
    1df6:	1a 96       	adiw	r26, 0x0a	; 10
    1df8:	9c 91       	ld	r25, X
    1dfa:	1a 97       	sbiw	r26, 0x0a	; 10
    1dfc:	9f 33       	cpi	r25, 0x3F	; 63
    1dfe:	b1 f4       	brne	.+44     	; 0x1e2c <SchedulerBasicP__TaskBasic__runTask+0x288>
    1e00:	8b 50       	subi	r24, 0x0B	; 11
    1e02:	82 30       	cpi	r24, 0x02	; 2
    1e04:	c8 f2       	brcs	.-78     	; 0x1db8 <SchedulerBasicP__TaskBasic__runTask+0x214>
    1e06:	17 96       	adiw	r26, 0x07	; 7
    1e08:	ec 90       	ld	r14, X
    1e0a:	17 97       	sbiw	r26, 0x07	; 7
    1e0c:	f1 2c       	mov	r15, r1
    1e0e:	fe 2c       	mov	r15, r14
    1e10:	ee 24       	eor	r14, r14
    1e12:	16 96       	adiw	r26, 0x06	; 6
    1e14:	8c 91       	ld	r24, X
    1e16:	e8 2a       	or	r14, r24
    1e18:	bf ef       	ldi	r27, 0xFF	; 255
    1e1a:	eb 16       	cp	r14, r27
    1e1c:	fb 06       	cpc	r15, r27
    1e1e:	b1 f0       	breq	.+44     	; 0x1e4c <SchedulerBasicP__TaskBasic__runTask+0x2a8>
    1e20:	0e 94 70 02 	call	0x4e0	; 0x4e0 <ActiveMessageAddressC__amAddress>
    1e24:	e8 16       	cp	r14, r24
    1e26:	f9 06       	cpc	r15, r25
    1e28:	39 f6       	brne	.-114    	; 0x1db8 <SchedulerBasicP__TaskBasic__runTask+0x214>
    1e2a:	10 c0       	rjmp	.+32     	; 0x1e4c <SchedulerBasicP__TaskBasic__runTask+0x2a8>
    1e2c:	f8 01       	movw	r30, r16
    1e2e:	e7 80       	ldd	r14, Z+7	; 0x07
    1e30:	f1 2c       	mov	r15, r1
    1e32:	fe 2c       	mov	r15, r14
    1e34:	ee 24       	eor	r14, r14
    1e36:	86 81       	ldd	r24, Z+6	; 0x06
    1e38:	e8 2a       	or	r14, r24
    1e3a:	0e 94 70 02 	call	0x4e0	; 0x4e0 <ActiveMessageAddressC__amAddress>
    1e3e:	e8 16       	cp	r14, r24
    1e40:	f9 06       	cpc	r15, r25
    1e42:	21 f0       	breq	.+8      	; 0x1e4c <SchedulerBasicP__TaskBasic__runTask+0x2a8>
    1e44:	ef 20       	and	r14, r15
    1e46:	e0 94       	com	r14
    1e48:	09 f0       	breq	.+2      	; 0x1e4c <SchedulerBasicP__TaskBasic__runTask+0x2a8>
    1e4a:	b6 cf       	rjmp	.-148    	; 0x1db8 <SchedulerBasicP__TaskBasic__runTask+0x214>
    1e4c:	8f b7       	in	r24, 0x3f	; 63
    1e4e:	f8 94       	cli
    1e50:	8f bf       	out	0x3f, r24	; 63
    1e52:	b2 cf       	rjmp	.-156    	; 0x1db8 <SchedulerBasicP__TaskBasic__runTask+0x214>
    1e54:	10 92 d9 03 	sts	0x03D9, r1
    1e58:	c1 cf       	rjmp	.-126    	; 0x1ddc <SchedulerBasicP__TaskBasic__runTask+0x238>
    1e5a:	ef b7       	in	r30, 0x3f	; 63
    1e5c:	f8 94       	cli
    1e5e:	80 91 a2 02 	lds	r24, 0x02A2
    1e62:	90 91 a3 02 	lds	r25, 0x02A3
    1e66:	a0 91 a4 02 	lds	r26, 0x02A4
    1e6a:	b0 91 a5 02 	lds	r27, 0x02A5
    1e6e:	1c 01       	movw	r2, r24
    1e70:	2d 01       	movw	r4, r26
    1e72:	9c 01       	movw	r18, r24
    1e74:	a2 01       	movw	r20, r4
    1e76:	60 e0       	ldi	r22, 0x00	; 0
    1e78:	70 e0       	ldi	r23, 0x00	; 0
    1e7a:	80 e0       	ldi	r24, 0x00	; 0
    1e7c:	90 e0       	ldi	r25, 0x00	; 0
    1e7e:	03 e0       	ldi	r16, 0x03	; 3
    1e80:	0e 94 70 19 	call	0x32e0	; 0x32e0 <__ashldi3>
    1e84:	51 01       	movw	r10, r2
    1e86:	62 01       	movw	r12, r4
    1e88:	e1 2c       	mov	r14, r1
    1e8a:	f1 2c       	mov	r15, r1
    1e8c:	00 e0       	ldi	r16, 0x00	; 0
    1e8e:	10 e0       	ldi	r17, 0x00	; 0
    1e90:	0e 94 a7 19 	call	0x334e	; 0x334e <__subdi3>
    1e94:	59 01       	movw	r10, r18
    1e96:	6a 01       	movw	r12, r20
    1e98:	7b 01       	movw	r14, r22
    1e9a:	f8 2f       	mov	r31, r24
    1e9c:	19 2f       	mov	r17, r25
    1e9e:	03 e0       	ldi	r16, 0x03	; 3
    1ea0:	0e 94 70 19 	call	0x32e0	; 0x32e0 <__ashldi3>
    1ea4:	0f 2f       	mov	r16, r31
    1ea6:	0e 94 a7 19 	call	0x334e	; 0x334e <__subdi3>
    1eaa:	59 01       	movw	r10, r18
    1eac:	6a 01       	movw	r12, r20
    1eae:	7b 01       	movw	r14, r22
    1eb0:	f8 2f       	mov	r31, r24
    1eb2:	19 2f       	mov	r17, r25
    1eb4:	03 e0       	ldi	r16, 0x03	; 3
    1eb6:	0e 94 70 19 	call	0x32e0	; 0x32e0 <__ashldi3>
    1eba:	0f 2f       	mov	r16, r31
    1ebc:	0e 94 a7 19 	call	0x334e	; 0x334e <__subdi3>
    1ec0:	59 01       	movw	r10, r18
    1ec2:	6a 01       	movw	r12, r20
    1ec4:	7b 01       	movw	r14, r22
    1ec6:	f8 2f       	mov	r31, r24
    1ec8:	19 2f       	mov	r17, r25
    1eca:	03 e0       	ldi	r16, 0x03	; 3
    1ecc:	0e 94 70 19 	call	0x32e0	; 0x32e0 <__ashldi3>
    1ed0:	0f 2f       	mov	r16, r31
    1ed2:	0e 94 a7 19 	call	0x334e	; 0x334e <__subdi3>
    1ed6:	59 01       	movw	r10, r18
    1ed8:	6a 01       	movw	r12, r20
    1eda:	7b 01       	movw	r14, r22
    1edc:	f8 2f       	mov	r31, r24
    1ede:	19 2f       	mov	r17, r25
    1ee0:	03 e0       	ldi	r16, 0x03	; 3
    1ee2:	0e 94 70 19 	call	0x32e0	; 0x32e0 <__ashldi3>
    1ee6:	0f 2f       	mov	r16, r31
    1ee8:	0e 94 a7 19 	call	0x334e	; 0x334e <__subdi3>
    1eec:	01 e0       	ldi	r16, 0x01	; 1
    1eee:	0e 94 70 19 	call	0x32e0	; 0x32e0 <__ashldi3>
    1ef2:	29 01       	movw	r4, r18
    1ef4:	3a 01       	movw	r6, r20
    1ef6:	00 e2       	ldi	r16, 0x20	; 32
    1ef8:	0e 94 8b 19 	call	0x3316	; 0x3316 <__lshrdi3>
    1efc:	49 01       	movw	r8, r18
    1efe:	5a 01       	movw	r10, r20
    1f00:	76 94       	lsr	r7
    1f02:	67 94       	ror	r6
    1f04:	57 94       	ror	r5
    1f06:	47 94       	ror	r4
    1f08:	84 0c       	add	r8, r4
    1f0a:	95 1c       	adc	r9, r5
    1f0c:	a6 1c       	adc	r10, r6
    1f0e:	b7 1c       	adc	r11, r7
    1f10:	b7 fe       	sbrs	r11, 7
    1f12:	07 c0       	rjmp	.+14     	; 0x1f22 <SchedulerBasicP__TaskBasic__runTask+0x37e>
    1f14:	e8 94       	clt
    1f16:	b7 f8       	bld	r11, 7
    1f18:	2f ef       	ldi	r18, 0xFF	; 255
    1f1a:	82 1a       	sub	r8, r18
    1f1c:	92 0a       	sbc	r9, r18
    1f1e:	a2 0a       	sbc	r10, r18
    1f20:	b2 0a       	sbc	r11, r18
    1f22:	80 92 a2 02 	sts	0x02A2, r8
    1f26:	90 92 a3 02 	sts	0x02A3, r9
    1f2a:	a0 92 a4 02 	sts	0x02A4, r10
    1f2e:	b0 92 a5 02 	sts	0x02A5, r11
    1f32:	ef bf       	out	0x3f, r30	; 63
    1f34:	8f b7       	in	r24, 0x3f	; 63
    1f36:	f8 94       	cli
    1f38:	90 92 bb 03 	sts	0x03BB, r9
    1f3c:	80 92 ba 03 	sts	0x03BA, r8
    1f40:	d6 c2       	rjmp	.+1452   	; 0x24ee <__stack+0x2ef>
    1f42:	80 91 61 02 	lds	r24, 0x0261
    1f46:	81 11       	cpse	r24, r1
    1f48:	41 c0       	rjmp	.+130    	; 0x1fcc <SchedulerBasicP__TaskBasic__runTask+0x428>
    1f4a:	40 91 d1 03 	lds	r20, 0x03D1
    1f4e:	50 91 d2 03 	lds	r21, 0x03D2
    1f52:	60 91 d3 03 	lds	r22, 0x03D3
    1f56:	70 91 d4 03 	lds	r23, 0x03D4
    1f5a:	2f b7       	in	r18, 0x3f	; 63
    1f5c:	f8 94       	cli
    1f5e:	c0 90 dc 03 	lds	r12, 0x03DC
    1f62:	d0 90 dd 03 	lds	r13, 0x03DD
    1f66:	e0 90 de 03 	lds	r14, 0x03DE
    1f6a:	f0 90 df 03 	lds	r15, 0x03DF
    1f6e:	80 91 35 02 	lds	r24, 0x0235
    1f72:	90 91 36 02 	lds	r25, 0x0236
    1f76:	a0 91 37 02 	lds	r26, 0x0237
    1f7a:	b0 91 38 02 	lds	r27, 0x0238
    1f7e:	8c 0d       	add	r24, r12
    1f80:	9d 1d       	adc	r25, r13
    1f82:	ae 1d       	adc	r26, r14
    1f84:	bf 1d       	adc	r27, r15
    1f86:	2f bf       	out	0x3f, r18	; 63
    1f88:	40 93 d1 03 	sts	0x03D1, r20
    1f8c:	50 93 d2 03 	sts	0x03D2, r21
    1f90:	60 93 d3 03 	sts	0x03D3, r22
    1f94:	70 93 d4 03 	sts	0x03D4, r23
    1f98:	10 92 61 02 	sts	0x0261, r1
    1f9c:	2f b7       	in	r18, 0x3f	; 63
    1f9e:	f8 94       	cli
    1fa0:	31 e0       	ldi	r19, 0x01	; 1
    1fa2:	30 93 a1 02 	sts	0x02A1, r19
    1fa6:	80 93 35 02 	sts	0x0235, r24
    1faa:	90 93 36 02 	sts	0x0236, r25
    1fae:	a0 93 37 02 	sts	0x0237, r26
    1fb2:	b0 93 38 02 	sts	0x0238, r27
    1fb6:	40 93 dc 03 	sts	0x03DC, r20
    1fba:	50 93 dd 03 	sts	0x03DD, r21
    1fbe:	60 93 de 03 	sts	0x03DE, r22
    1fc2:	70 93 df 03 	sts	0x03DF, r23
    1fc6:	2f bf       	out	0x3f, r18	; 63
    1fc8:	0e 94 a8 05 	call	0xb50	; 0xb50 <Atm1281AlarmAsyncP__0__setInterrupt>
    1fcc:	0e 94 4f 02 	call	0x49e	; 0x49e <Atm1281AlarmAsyncP__0__Counter__get>
    1fd0:	30 c0       	rjmp	.+96     	; 0x2032 <SchedulerBasicP__TaskBasic__runTask+0x48e>
    1fd2:	0e 94 4f 02 	call	0x49e	; 0x49e <Atm1281AlarmAsyncP__0__Counter__get>
    1fd6:	2f b7       	in	r18, 0x3f	; 63
    1fd8:	f8 94       	cli
    1fda:	10 92 a1 02 	sts	0x02A1, r1
    1fde:	2f bf       	out	0x3f, r18	; 63
    1fe0:	20 91 51 03 	lds	r18, 0x0351
    1fe4:	21 ff       	sbrs	r18, 1
    1fe6:	ef c2       	rjmp	.+1502   	; 0x25c6 <__stack+0x3c7>
    1fe8:	00 91 49 03 	lds	r16, 0x0349
    1fec:	10 91 4a 03 	lds	r17, 0x034A
    1ff0:	20 91 4b 03 	lds	r18, 0x034B
    1ff4:	30 91 4c 03 	lds	r19, 0x034C
    1ff8:	6b 01       	movw	r12, r22
    1ffa:	7c 01       	movw	r14, r24
    1ffc:	c0 1a       	sub	r12, r16
    1ffe:	d1 0a       	sbc	r13, r17
    2000:	e2 0a       	sbc	r14, r18
    2002:	f3 0a       	sbc	r15, r19
    2004:	97 01       	movw	r18, r14
    2006:	86 01       	movw	r16, r12
    2008:	c0 90 4d 03 	lds	r12, 0x034D
    200c:	d0 90 4e 03 	lds	r13, 0x034E
    2010:	e0 90 4f 03 	lds	r14, 0x034F
    2014:	f0 90 50 03 	lds	r15, 0x0350
    2018:	c0 1a       	sub	r12, r16
    201a:	d1 0a       	sbc	r13, r17
    201c:	e2 0a       	sbc	r14, r18
    201e:	f3 0a       	sbc	r15, r19
    2020:	2f ef       	ldi	r18, 0xFF	; 255
    2022:	c2 16       	cp	r12, r18
    2024:	d2 06       	cpc	r13, r18
    2026:	e2 06       	cpc	r14, r18
    2028:	2f e7       	ldi	r18, 0x7F	; 127
    202a:	f2 06       	cpc	r15, r18
    202c:	09 f0       	breq	.+2      	; 0x2030 <SchedulerBasicP__TaskBasic__runTask+0x48c>
    202e:	90 c2       	rjmp	.+1312   	; 0x2550 <__stack+0x351>
    2030:	ca c2       	rjmp	.+1428   	; 0x25c6 <__stack+0x3c7>
    2032:	0f 90       	pop	r0
    2034:	df 91       	pop	r29
    2036:	cf 91       	pop	r28
    2038:	1f 91       	pop	r17
    203a:	0f 91       	pop	r16
    203c:	ff 90       	pop	r15
    203e:	ef 90       	pop	r14
    2040:	df 90       	pop	r13
    2042:	cf 90       	pop	r12
    2044:	bf 90       	pop	r11
    2046:	af 90       	pop	r10
    2048:	9f 90       	pop	r9
    204a:	8f 90       	pop	r8
    204c:	7f 90       	pop	r7
    204e:	6f 90       	pop	r6
    2050:	5f 90       	pop	r5
    2052:	4f 90       	pop	r4
    2054:	3f 90       	pop	r3
    2056:	2f 90       	pop	r2
    2058:	0c 94 5c 0d 	jmp	0x1ab8	; 0x1ab8 <VirtualizeTimerC__0__fireTimers>
    205c:	8f b7       	in	r24, 0x3f	; 63
    205e:	f8 94       	cli
    2060:	10 92 b1 03 	sts	0x03B1, r1
    2064:	10 92 b0 03 	sts	0x03B0, r1
    2068:	10 92 70 04 	sts	0x0470, r1
    206c:	10 92 6f 04 	sts	0x046F, r1
    2070:	10 92 2e 02 	sts	0x022E, r1
    2074:	10 92 2d 02 	sts	0x022D, r1
    2078:	10 92 3a 03 	sts	0x033A, r1
    207c:	10 92 39 03 	sts	0x0339, r1
    2080:	36 c2       	rjmp	.+1132   	; 0x24ee <__stack+0x2ef>
    2082:	1f b7       	in	r17, 0x3f	; 63
    2084:	f8 94       	cli
    2086:	82 e0       	ldi	r24, 0x02	; 2
    2088:	80 93 28 02 	sts	0x0228, r24
    208c:	0e 94 70 06 	call	0xce0	; 0xce0 <Atm128SpiP__startSpi>
    2090:	1f bf       	out	0x3f, r17	; 63
    2092:	80 91 09 02 	lds	r24, 0x0209
    2096:	81 11       	cpse	r24, r1
    2098:	96 c2       	rjmp	.+1324   	; 0x25c6 <__stack+0x3c7>
    209a:	80 91 71 04 	lds	r24, 0x0471
    209e:	81 11       	cpse	r24, r1
    20a0:	46 c0       	rjmp	.+140    	; 0x212e <SchedulerBasicP__TaskBasic__runTask+0x58a>
    20a2:	8e ef       	ldi	r24, 0xFE	; 254
    20a4:	91 e0       	ldi	r25, 0x01	; 1
    20a6:	0e 94 71 04 	call	0x8e2	; 0x8e2 <BusyWaitMicroC__BusyWait__wait.part.72>
    20aa:	16 98       	cbi	0x02, 6	; 2
    20ac:	0e 94 a7 01 	call	0x34e	; 0x34e <HplAtm128GeneralIOPinP__15__IO__clr>
    20b0:	86 e0       	ldi	r24, 0x06	; 6
    20b2:	90 e0       	ldi	r25, 0x00	; 0
    20b4:	0e 94 71 04 	call	0x8e2	; 0x8e2 <BusyWaitMicroC__BusyWait__wait.part.72>
    20b8:	16 9a       	sbi	0x02, 6	; 2
    20ba:	60 e0       	ldi	r22, 0x00	; 0
    20bc:	83 e0       	ldi	r24, 0x03	; 3
    20be:	0e 94 58 06 	call	0xcb0	; 0xcb0 <RF230DriverLayerP__writeRegister>
    20c2:	68 e0       	ldi	r22, 0x08	; 8
    20c4:	82 e0       	ldi	r24, 0x02	; 2
    20c6:	0e 94 58 06 	call	0xcb0	; 0xcb0 <RF230DriverLayerP__writeRegister>
    20ca:	8e ef       	ldi	r24, 0xFE	; 254
    20cc:	91 e0       	ldi	r25, 0x01	; 1
    20ce:	0e 94 71 04 	call	0x8e2	; 0x8e2 <BusyWaitMicroC__BusyWait__wait.part.72>
    20d2:	6d e4       	ldi	r22, 0x4D	; 77
    20d4:	8e e0       	ldi	r24, 0x0E	; 14
    20d6:	0e 94 58 06 	call	0xcb0	; 0xcb0 <RF230DriverLayerP__writeRegister>
    20da:	67 ec       	ldi	r22, 0xC7	; 199
    20dc:	89 e0       	ldi	r24, 0x09	; 9
    20de:	0e 94 58 06 	call	0xcb0	; 0xcb0 <RF230DriverLayerP__writeRegister>
    20e2:	60 e8       	ldi	r22, 0x80	; 128
    20e4:	85 e0       	ldi	r24, 0x05	; 5
    20e6:	0e 94 58 06 	call	0xcb0	; 0xcb0 <RF230DriverLayerP__writeRegister>
    20ea:	10 92 e5 02 	sts	0x02E5, r1
    20ee:	8a e1       	ldi	r24, 0x1A	; 26
    20f0:	80 93 63 02 	sts	0x0263, r24
    20f4:	6a e7       	ldi	r22, 0x7A	; 122
    20f6:	88 e0       	ldi	r24, 0x08	; 8
    20f8:	0e 94 58 06 	call	0xcb0	; 0xcb0 <RF230DriverLayerP__writeRegister>
    20fc:	2f 9a       	sbi	0x05, 7	; 5
    20fe:	81 e0       	ldi	r24, 0x01	; 1
    2100:	80 93 71 04 	sts	0x0471, r24
    2104:	0f 90       	pop	r0
    2106:	df 91       	pop	r29
    2108:	cf 91       	pop	r28
    210a:	1f 91       	pop	r17
    210c:	0f 91       	pop	r16
    210e:	ff 90       	pop	r15
    2110:	ef 90       	pop	r14
    2112:	df 90       	pop	r13
    2114:	cf 90       	pop	r12
    2116:	bf 90       	pop	r11
    2118:	af 90       	pop	r10
    211a:	9f 90       	pop	r9
    211c:	8f 90       	pop	r8
    211e:	7f 90       	pop	r7
    2120:	6f 90       	pop	r6
    2122:	5f 90       	pop	r5
    2124:	4f 90       	pop	r4
    2126:	3f 90       	pop	r3
    2128:	2f 90       	pop	r2
    212a:	0c 94 73 05 	jmp	0xae6	; 0xae6 <RF230DriverLayerP__SpiResource__release>
    212e:	0f 90       	pop	r0
    2130:	df 91       	pop	r29
    2132:	cf 91       	pop	r28
    2134:	1f 91       	pop	r17
    2136:	0f 91       	pop	r16
    2138:	ff 90       	pop	r15
    213a:	ef 90       	pop	r14
    213c:	df 90       	pop	r13
    213e:	cf 90       	pop	r12
    2140:	bf 90       	pop	r11
    2142:	af 90       	pop	r10
    2144:	9f 90       	pop	r9
    2146:	8f 90       	pop	r8
    2148:	7f 90       	pop	r7
    214a:	6f 90       	pop	r6
    214c:	5f 90       	pop	r5
    214e:	4f 90       	pop	r4
    2150:	3f 90       	pop	r3
    2152:	2f 90       	pop	r2
    2154:	0c 94 c1 0d 	jmp	0x1b82	; 0x1b82 <TaskletC__0__Tasklet__schedule>
    2158:	8f b7       	in	r24, 0x3f	; 63
    215a:	f8 94       	cli
    215c:	90 91 bf 03 	lds	r25, 0x03BF
    2160:	90 93 08 02 	sts	0x0208, r25
    2164:	93 e0       	ldi	r25, 0x03	; 3
    2166:	90 93 26 02 	sts	0x0226, r25
    216a:	8f bf       	out	0x3f, r24	; 63
    216c:	80 91 08 02 	lds	r24, 0x0208
    2170:	81 11       	cpse	r24, r1
    2172:	29 c2       	rjmp	.+1106   	; 0x25c6 <__stack+0x3c7>
    2174:	81 e0       	ldi	r24, 0x01	; 1
    2176:	80 93 e4 02 	sts	0x02E4, r24
    217a:	10 92 da 03 	sts	0x03DA, r1
    217e:	0f 90       	pop	r0
    2180:	df 91       	pop	r29
    2182:	cf 91       	pop	r28
    2184:	1f 91       	pop	r17
    2186:	0f 91       	pop	r16
    2188:	ff 90       	pop	r15
    218a:	ef 90       	pop	r14
    218c:	df 90       	pop	r13
    218e:	cf 90       	pop	r12
    2190:	bf 90       	pop	r11
    2192:	af 90       	pop	r10
    2194:	9f 90       	pop	r9
    2196:	8f 90       	pop	r8
    2198:	7f 90       	pop	r7
    219a:	6f 90       	pop	r6
    219c:	5f 90       	pop	r5
    219e:	4f 90       	pop	r4
    21a0:	3f 90       	pop	r3
    21a2:	2f 90       	pop	r2
    21a4:	0c 94 a4 04 	jmp	0x948	; 0x948 <AdcP__sample>
    21a8:	10 92 e4 02 	sts	0x02E4, r1
    21ac:	80 91 da 03 	lds	r24, 0x03DA
    21b0:	81 11       	cpse	r24, r1
    21b2:	09 c2       	rjmp	.+1042   	; 0x25c6 <__stack+0x3c7>
    21b4:	1f b7       	in	r17, 0x3f	; 63
    21b6:	f8 94       	cli
    21b8:	80 91 26 02 	lds	r24, 0x0226
    21bc:	83 30       	cpi	r24, 0x03	; 3
    21be:	09 f0       	breq	.+2      	; 0x21c2 <SchedulerBasicP__TaskBasic__runTask+0x61e>
    21c0:	19 c1       	rjmp	.+562    	; 0x23f4 <__stack+0x1f5>
    21c2:	80 91 08 02 	lds	r24, 0x0208
    21c6:	81 11       	cpse	r24, r1
    21c8:	15 c1       	rjmp	.+554    	; 0x23f4 <__stack+0x1f5>
    21ca:	80 91 48 03 	lds	r24, 0x0348
    21ce:	88 23       	and	r24, r24
    21d0:	09 f4       	brne	.+2      	; 0x21d4 <SchedulerBasicP__TaskBasic__runTask+0x630>
    21d2:	b1 c1       	rjmp	.+866    	; 0x2536 <__stack+0x337>
    21d4:	20 91 27 02 	lds	r18, 0x0227
    21d8:	30 e0       	ldi	r19, 0x00	; 0
    21da:	c9 01       	movw	r24, r18
    21dc:	01 96       	adiw	r24, 0x01	; 1
    21de:	a1 e0       	ldi	r26, 0x01	; 1
    21e0:	b0 e0       	ldi	r27, 0x00	; 0
    21e2:	81 30       	cpi	r24, 0x01	; 1
    21e4:	91 05       	cpc	r25, r1
    21e6:	11 f4       	brne	.+4      	; 0x21ec <SchedulerBasicP__TaskBasic__runTask+0x648>
    21e8:	80 e0       	ldi	r24, 0x00	; 0
    21ea:	90 e0       	ldi	r25, 0x00	; 0
    21ec:	e8 2f       	mov	r30, r24
    21ee:	e6 95       	lsr	r30
    21f0:	e6 95       	lsr	r30
    21f2:	e6 95       	lsr	r30
    21f4:	f0 e0       	ldi	r31, 0x00	; 0
    21f6:	e8 5b       	subi	r30, 0xB8	; 184
    21f8:	fc 4f       	sbci	r31, 0xFC	; 252
    21fa:	40 81       	ld	r20, Z
    21fc:	58 2f       	mov	r21, r24
    21fe:	57 70       	andi	r21, 0x07	; 7
    2200:	bd 01       	movw	r22, r26
    2202:	01 c0       	rjmp	.+2      	; 0x2206 <__stack+0x7>
    2204:	66 0f       	add	r22, r22
    2206:	5a 95       	dec	r21
    2208:	ea f7       	brpl	.-6      	; 0x2204 <__stack+0x5>
    220a:	54 2f       	mov	r21, r20
    220c:	56 23       	and	r21, r22
    220e:	31 f0       	breq	.+12     	; 0x221c <__stack+0x1d>
    2210:	60 95       	com	r22
    2212:	46 23       	and	r20, r22
    2214:	40 83       	st	Z, r20
    2216:	80 93 27 02 	sts	0x0227, r24
    221a:	06 c0       	rjmp	.+12     	; 0x2228 <__stack+0x29>
    221c:	82 17       	cp	r24, r18
    221e:	93 07       	cpc	r25, r19
    2220:	11 f0       	breq	.+4      	; 0x2226 <__stack+0x27>
    2222:	01 96       	adiw	r24, 0x01	; 1
    2224:	de cf       	rjmp	.-68     	; 0x21e2 <SchedulerBasicP__TaskBasic__runTask+0x63e>
    2226:	8f ef       	ldi	r24, 0xFF	; 255
    2228:	80 93 bf 03 	sts	0x03BF, r24
    222c:	8f ef       	ldi	r24, 0xFF	; 255
    222e:	80 93 08 02 	sts	0x0208, r24
    2232:	81 e0       	ldi	r24, 0x01	; 1
    2234:	80 93 26 02 	sts	0x0226, r24
    2238:	8b e0       	ldi	r24, 0x0B	; 11
    223a:	0e 94 01 02 	call	0x402	; 0x402 <SchedulerBasicP__TaskBasic__postTask>
    223e:	da c0       	rjmp	.+436    	; 0x23f4 <__stack+0x1f5>
    2240:	80 91 db 03 	lds	r24, 0x03DB
    2244:	88 23       	and	r24, r24
    2246:	09 f4       	brne	.+2      	; 0x224a <__stack+0x4b>
    2248:	be c1       	rjmp	.+892    	; 0x25c6 <__stack+0x3c7>
    224a:	0d e3       	ldi	r16, 0x3D	; 61
    224c:	13 e0       	ldi	r17, 0x03	; 3
    224e:	e1 2c       	mov	r14, r1
    2250:	ff 24       	eor	r15, r15
    2252:	f3 94       	inc	r15
    2254:	80 91 db 03 	lds	r24, 0x03DB
    2258:	9f 2d       	mov	r25, r15
    225a:	98 23       	and	r25, r24
    225c:	69 f0       	breq	.+26     	; 0x2278 <__stack+0x79>
    225e:	d8 01       	movw	r26, r16
    2260:	1d 92       	st	X+, r1
    2262:	1c 92       	st	X, r1
    2264:	9f 2d       	mov	r25, r15
    2266:	90 95       	com	r25
    2268:	89 23       	and	r24, r25
    226a:	80 93 db 03 	sts	0x03DB, r24
    226e:	e1 10       	cpse	r14, r1
    2270:	03 c0       	rjmp	.+6      	; 0x2278 <__stack+0x79>
    2272:	83 e0       	ldi	r24, 0x03	; 3
    2274:	0e 94 32 05 	call	0xa64	; 0xa64 <InterferenceC__AMSend__sendDone.isra.125>
    2278:	ff 0c       	add	r15, r15
    227a:	e3 94       	inc	r14
    227c:	0e 5f       	subi	r16, 0xFE	; 254
    227e:	1f 4f       	sbci	r17, 0xFF	; 255
    2280:	b8 e0       	ldi	r27, 0x08	; 8
    2282:	eb 12       	cpse	r14, r27
    2284:	e7 cf       	rjmp	.-50     	; 0x2254 <__stack+0x55>
    2286:	9f c1       	rjmp	.+830    	; 0x25c6 <__stack+0x3c7>
    2288:	61 e0       	ldi	r22, 0x01	; 1
    228a:	80 91 07 02 	lds	r24, 0x0207
    228e:	0f 90       	pop	r0
    2290:	df 91       	pop	r29
    2292:	cf 91       	pop	r28
    2294:	1f 91       	pop	r17
    2296:	0f 91       	pop	r16
    2298:	ff 90       	pop	r15
    229a:	ef 90       	pop	r14
    229c:	df 90       	pop	r13
    229e:	cf 90       	pop	r12
    22a0:	bf 90       	pop	r11
    22a2:	af 90       	pop	r10
    22a4:	9f 90       	pop	r9
    22a6:	8f 90       	pop	r8
    22a8:	7f 90       	pop	r7
    22aa:	6f 90       	pop	r6
    22ac:	5f 90       	pop	r5
    22ae:	4f 90       	pop	r4
    22b0:	3f 90       	pop	r3
    22b2:	2f 90       	pop	r2
    22b4:	0c 94 18 0d 	jmp	0x1a30	; 0x1a30 <AMQueueImplP__0__sendDone.isra.129>
    22b8:	2f b7       	in	r18, 0x3f	; 63
    22ba:	f8 94       	cli
    22bc:	10 92 74 04 	sts	0x0474, r1
    22c0:	90 91 b7 03 	lds	r25, 0x03B7
    22c4:	88 ef       	ldi	r24, 0xF8	; 248
    22c6:	89 0f       	add	r24, r25
    22c8:	82 30       	cpi	r24, 0x02	; 2
    22ca:	50 f4       	brcc	.+20     	; 0x22e0 <__stack+0xe1>
    22cc:	10 92 b7 03 	sts	0x03B7, r1
    22d0:	e0 91 47 03 	lds	r30, 0x0347
    22d4:	f0 e0       	ldi	r31, 0x00	; 0
    22d6:	ee 0f       	add	r30, r30
    22d8:	ff 1f       	adc	r31, r31
    22da:	ef 54       	subi	r30, 0x4F	; 79
    22dc:	fd 4f       	sbci	r31, 0xFD	; 253
    22de:	10 82       	st	Z, r1
    22e0:	2f bf       	out	0x3f, r18	; 63
    22e2:	82 30       	cpi	r24, 0x02	; 2
    22e4:	18 f5       	brcc	.+70     	; 0x232c <__stack+0x12d>
    22e6:	2f b7       	in	r18, 0x3f	; 63
    22e8:	f8 94       	cli
    22ea:	80 91 d8 03 	lds	r24, 0x03D8
    22ee:	8f 5f       	subi	r24, 0xFF	; 255
    22f0:	80 93 d8 03 	sts	0x03D8, r24
    22f4:	80 91 ad 02 	lds	r24, 0x02AD
    22f8:	83 34       	cpi	r24, 0x43	; 67
    22fa:	89 f4       	brne	.+34     	; 0x231e <__stack+0x11f>
    22fc:	80 91 32 03 	lds	r24, 0x0332
    2300:	90 91 31 03 	lds	r25, 0x0331
    2304:	98 17       	cp	r25, r24
    2306:	41 f0       	breq	.+16     	; 0x2318 <__stack+0x119>
    2308:	8f 5f       	subi	r24, 0xFF	; 255
    230a:	86 30       	cpi	r24, 0x06	; 6
    230c:	18 f4       	brcc	.+6      	; 0x2314 <__stack+0x115>
    230e:	80 93 32 03 	sts	0x0332, r24
    2312:	02 c0       	rjmp	.+4      	; 0x2318 <__stack+0x119>
    2314:	10 92 32 03 	sts	0x0332, r1
    2318:	90 e0       	ldi	r25, 0x00	; 0
    231a:	80 e0       	ldi	r24, 0x00	; 0
    231c:	05 c0       	rjmp	.+10     	; 0x2328 <__stack+0x129>
    231e:	81 e0       	ldi	r24, 0x01	; 1
    2320:	98 30       	cpi	r25, 0x08	; 8
    2322:	09 f4       	brne	.+2      	; 0x2326 <__stack+0x127>
    2324:	80 e0       	ldi	r24, 0x00	; 0
    2326:	91 e0       	ldi	r25, 0x01	; 1
    2328:	2f bf       	out	0x3f, r18	; 63
    232a:	04 c0       	rjmp	.+8      	; 0x2334 <__stack+0x135>
    232c:	91 11       	cpse	r25, r1
    232e:	0e c1       	rjmp	.+540    	; 0x254c <__stack+0x34d>
    2330:	80 e0       	ldi	r24, 0x00	; 0
    2332:	90 e0       	ldi	r25, 0x00	; 0
    2334:	3f b7       	in	r19, 0x3f	; 63
    2336:	f8 94       	cli
    2338:	20 91 25 02 	lds	r18, 0x0225
    233c:	3f bf       	out	0x3f, r19	; 63
    233e:	22 23       	and	r18, r18
    2340:	39 f0       	breq	.+14     	; 0x2350 <__stack+0x151>
    2342:	2f b7       	in	r18, 0x3f	; 63
    2344:	f8 94       	cli
    2346:	3a e0       	ldi	r19, 0x0A	; 10
    2348:	30 93 b7 03 	sts	0x03B7, r19
    234c:	2f bf       	out	0x3f, r18	; 63
    234e:	3f c0       	rjmp	.+126    	; 0x23ce <__stack+0x1cf>
    2350:	4f b7       	in	r20, 0x3f	; 63
    2352:	f8 94       	cli
    2354:	30 91 b1 02 	lds	r19, 0x02B1
    2358:	20 91 b3 02 	lds	r18, 0x02B3
    235c:	4f bf       	out	0x3f, r20	; 63
    235e:	6f b7       	in	r22, 0x3f	; 63
    2360:	f8 94       	cli
    2362:	50 91 31 03 	lds	r21, 0x0331
    2366:	40 91 32 03 	lds	r20, 0x0332
    236a:	6f bf       	out	0x3f, r22	; 63
    236c:	54 17       	cp	r21, r20
    236e:	09 f1       	breq	.+66     	; 0x23b2 <__stack+0x1b3>
    2370:	31 11       	cpse	r19, r1
    2372:	1f c0       	rjmp	.+62     	; 0x23b2 <__stack+0x1b3>
    2374:	3f b7       	in	r19, 0x3f	; 63
    2376:	f8 94       	cli
    2378:	22 e0       	ldi	r18, 0x02	; 2
    237a:	20 93 b1 02 	sts	0x02B1, r18
    237e:	5f b7       	in	r21, 0x3f	; 63
    2380:	f8 94       	cli
    2382:	40 91 31 03 	lds	r20, 0x0331
    2386:	20 91 32 03 	lds	r18, 0x0332
    238a:	5f bf       	out	0x3f, r21	; 63
    238c:	42 17       	cp	r20, r18
    238e:	39 f0       	breq	.+14     	; 0x239e <__stack+0x19f>
    2390:	e0 91 32 03 	lds	r30, 0x0332
    2394:	f0 e0       	ldi	r31, 0x00	; 0
    2396:	ef 5c       	subi	r30, 0xCF	; 207
    2398:	fc 4f       	sbci	r31, 0xFC	; 252
    239a:	22 81       	ldd	r18, Z+2	; 0x02
    239c:	01 c0       	rjmp	.+2      	; 0x23a0 <__stack+0x1a1>
    239e:	20 e0       	ldi	r18, 0x00	; 0
    23a0:	20 93 b2 02 	sts	0x02B2, r18
    23a4:	23 e4       	ldi	r18, 0x43	; 67
    23a6:	20 93 ad 02 	sts	0x02AD, r18
    23aa:	10 92 47 03 	sts	0x0347, r1
    23ae:	3f bf       	out	0x3f, r19	; 63
    23b0:	0c c0       	rjmp	.+24     	; 0x23ca <__stack+0x1cb>
    23b2:	21 50       	subi	r18, 0x01	; 1
    23b4:	22 30       	cpi	r18, 0x02	; 2
    23b6:	58 f4       	brcc	.+22     	; 0x23ce <__stack+0x1cf>
    23b8:	2f b7       	in	r18, 0x3f	; 63
    23ba:	f8 94       	cli
    23bc:	35 e4       	ldi	r19, 0x45	; 69
    23be:	30 93 ad 02 	sts	0x02AD, r19
    23c2:	31 e0       	ldi	r19, 0x01	; 1
    23c4:	30 93 47 03 	sts	0x0347, r19
    23c8:	2f bf       	out	0x3f, r18	; 63
    23ca:	01 e0       	ldi	r16, 0x01	; 1
    23cc:	01 c0       	rjmp	.+2      	; 0x23d0 <__stack+0x1d1>
    23ce:	00 e0       	ldi	r16, 0x00	; 0
    23d0:	99 23       	and	r25, r25
    23d2:	41 f0       	breq	.+16     	; 0x23e4 <__stack+0x1e5>
    23d4:	9f b7       	in	r25, 0x3f	; 63
    23d6:	f8 94       	cli
    23d8:	80 93 1c 02 	sts	0x021C, r24
    23dc:	9f bf       	out	0x3f, r25	; 63
    23de:	83 e1       	ldi	r24, 0x13	; 19
    23e0:	0e 94 01 02 	call	0x402	; 0x402 <SchedulerBasicP__TaskBasic__postTask>
    23e4:	1f b7       	in	r17, 0x3f	; 63
    23e6:	f8 94       	cli
    23e8:	80 91 b7 03 	lds	r24, 0x03B7
    23ec:	8a 30       	cpi	r24, 0x0A	; 10
    23ee:	21 f4       	brne	.+8      	; 0x23f8 <__stack+0x1f9>
    23f0:	0e 94 23 02 	call	0x446	; 0x446 <SerialP__testOff>
    23f4:	1f bf       	out	0x3f, r17	; 63
    23f6:	e7 c0       	rjmp	.+462    	; 0x25c6 <__stack+0x3c7>
    23f8:	1f bf       	out	0x3f, r17	; 63
    23fa:	00 23       	and	r16, r16
    23fc:	09 f4       	brne	.+2      	; 0x2400 <__stack+0x201>
    23fe:	e3 c0       	rjmp	.+454    	; 0x25c6 <__stack+0x3c7>
    2400:	8f b7       	in	r24, 0x3f	; 63
    2402:	f8 94       	cli
    2404:	10 92 7a 04 	sts	0x047A, r1
    2408:	10 92 79 04 	sts	0x0479, r1
    240c:	10 92 ab 02 	sts	0x02AB, r1
    2410:	91 e0       	ldi	r25, 0x01	; 1
    2412:	90 93 b7 03 	sts	0x03B7, r25
    2416:	8f bf       	out	0x3f, r24	; 63
    2418:	0e 94 27 07 	call	0xe4e	; 0xe4e <HdlcTranslateC__SerialFrameComm__putDelimiter>
    241c:	88 23       	and	r24, r24
    241e:	09 f4       	brne	.+2      	; 0x2422 <__stack+0x223>
    2420:	d2 c0       	rjmp	.+420    	; 0x25c6 <__stack+0x3c7>
    2422:	8f b7       	in	r24, 0x3f	; 63
    2424:	f8 94       	cli
    2426:	99 e0       	ldi	r25, 0x09	; 9
    2428:	90 93 b7 03 	sts	0x03B7, r25
    242c:	8f bf       	out	0x3f, r24	; 63
    242e:	0f 90       	pop	r0
    2430:	df 91       	pop	r29
    2432:	cf 91       	pop	r28
    2434:	1f 91       	pop	r17
    2436:	0f 91       	pop	r16
    2438:	ff 90       	pop	r15
    243a:	ef 90       	pop	r14
    243c:	df 90       	pop	r13
    243e:	cf 90       	pop	r12
    2440:	bf 90       	pop	r11
    2442:	af 90       	pop	r10
    2444:	9f 90       	pop	r9
    2446:	8f 90       	pop	r8
    2448:	7f 90       	pop	r7
    244a:	6f 90       	pop	r6
    244c:	5f 90       	pop	r5
    244e:	4f 90       	pop	r4
    2450:	3f 90       	pop	r3
    2452:	2f 90       	pop	r2
    2454:	0c 94 35 02 	jmp	0x46a	; 0x46a <SerialP__MaybeScheduleTx>
    2458:	80 91 c1 00 	lds	r24, 0x00C1
    245c:	8f 7b       	andi	r24, 0xBF	; 191
    245e:	80 93 c1 00 	sts	0x00C1, r24
    2462:	80 91 c1 00 	lds	r24, 0x00C1
    2466:	8f 77       	andi	r24, 0x7F	; 127
    2468:	80 93 c1 00 	sts	0x00C1, r24
    246c:	10 92 b4 03 	sts	0x03B4, r1
    2470:	10 92 9f 02 	sts	0x029F, r1
    2474:	80 91 c1 00 	lds	r24, 0x00C1
    2478:	88 60       	ori	r24, 0x08	; 8
    247a:	80 93 c1 00 	sts	0x00C1, r24
    247e:	80 91 c1 00 	lds	r24, 0x00C1
    2482:	80 61       	ori	r24, 0x10	; 16
    2484:	80 93 c1 00 	sts	0x00C1, r24
    2488:	80 91 c1 00 	lds	r24, 0x00C1
    248c:	80 68       	ori	r24, 0x80	; 128
    248e:	80 93 c1 00 	sts	0x00C1, r24
    2492:	8f b7       	in	r24, 0x3f	; 63
    2494:	f8 94       	cli
    2496:	10 92 b7 03 	sts	0x03B7, r1
    249a:	10 92 9c 02 	sts	0x029C, r1
    249e:	27 c0       	rjmp	.+78     	; 0x24ee <__stack+0x2ef>
    24a0:	82 e1       	ldi	r24, 0x12	; 18
    24a2:	0f 90       	pop	r0
    24a4:	df 91       	pop	r29
    24a6:	cf 91       	pop	r28
    24a8:	1f 91       	pop	r17
    24aa:	0f 91       	pop	r16
    24ac:	ff 90       	pop	r15
    24ae:	ef 90       	pop	r14
    24b0:	df 90       	pop	r13
    24b2:	cf 90       	pop	r12
    24b4:	bf 90       	pop	r11
    24b6:	af 90       	pop	r10
    24b8:	9f 90       	pop	r9
    24ba:	8f 90       	pop	r8
    24bc:	7f 90       	pop	r7
    24be:	6f 90       	pop	r6
    24c0:	5f 90       	pop	r5
    24c2:	4f 90       	pop	r4
    24c4:	3f 90       	pop	r3
    24c6:	2f 90       	pop	r2
    24c8:	0c 94 01 02 	jmp	0x402	; 0x402 <SchedulerBasicP__TaskBasic__postTask>
    24cc:	80 91 c1 00 	lds	r24, 0x00C1
    24d0:	87 7f       	andi	r24, 0xF7	; 247
    24d2:	80 93 c1 00 	sts	0x00C1, r24
    24d6:	80 91 c1 00 	lds	r24, 0x00C1
    24da:	8f 7e       	andi	r24, 0xEF	; 239
    24dc:	80 93 c1 00 	sts	0x00C1, r24
    24e0:	72 c0       	rjmp	.+228    	; 0x25c6 <__stack+0x3c7>
    24e2:	10 92 20 02 	sts	0x0220, r1
    24e6:	10 92 1f 02 	sts	0x021F, r1
    24ea:	8f b7       	in	r24, 0x3f	; 63
    24ec:	f8 94       	cli
    24ee:	8f bf       	out	0x3f, r24	; 63
    24f0:	6a c0       	rjmp	.+212    	; 0x25c6 <__stack+0x3c7>
    24f2:	9f b7       	in	r25, 0x3f	; 63
    24f4:	f8 94       	cli
    24f6:	20 91 16 02 	lds	r18, 0x0216
    24fa:	30 91 17 02 	lds	r19, 0x0217
    24fe:	80 91 3b 02 	lds	r24, 0x023B
    2502:	9f bf       	out	0x3f, r25	; 63
    2504:	9f b7       	in	r25, 0x3f	; 63
    2506:	f8 94       	cli
    2508:	e8 2f       	mov	r30, r24
    250a:	f0 e0       	ldi	r31, 0x00	; 0
    250c:	ee 0f       	add	r30, r30
    250e:	ff 1f       	adc	r31, r31
    2510:	ee 5f       	subi	r30, 0xFE	; 254
    2512:	fd 4f       	sbci	r31, 0xFD	; 253
    2514:	31 83       	std	Z+1, r19	; 0x01
    2516:	20 83       	st	Z, r18
    2518:	88 23       	and	r24, r24
    251a:	21 f0       	breq	.+8      	; 0x2524 <__stack+0x325>
    251c:	80 91 24 02 	lds	r24, 0x0224
    2520:	8b 7f       	andi	r24, 0xFB	; 251
    2522:	03 c0       	rjmp	.+6      	; 0x252a <__stack+0x32b>
    2524:	80 91 24 02 	lds	r24, 0x0224
    2528:	8d 7f       	andi	r24, 0xFD	; 253
    252a:	80 93 24 02 	sts	0x0224, r24
    252e:	10 92 19 02 	sts	0x0219, r1
    2532:	9f bf       	out	0x3f, r25	; 63
    2534:	48 c0       	rjmp	.+144    	; 0x25c6 <__stack+0x3c7>
    2536:	81 e0       	ldi	r24, 0x01	; 1
    2538:	80 93 08 02 	sts	0x0208, r24
    253c:	10 92 26 02 	sts	0x0226, r1
    2540:	80 91 7a 00 	lds	r24, 0x007A
    2544:	8f 77       	andi	r24, 0x7F	; 127
    2546:	80 93 7a 00 	sts	0x007A, r24
    254a:	54 cf       	rjmp	.-344    	; 0x23f4 <__stack+0x1f5>
    254c:	00 e0       	ldi	r16, 0x00	; 0
    254e:	4a cf       	rjmp	.-364    	; 0x23e4 <__stack+0x1e5>
    2550:	1c 14       	cp	r1, r12
    2552:	1d 04       	cpc	r1, r13
    2554:	1e 04       	cpc	r1, r14
    2556:	1f 04       	cpc	r1, r15
    2558:	0c f0       	brlt	.+2      	; 0x255c <__stack+0x35d>
    255a:	6b cd       	rjmp	.-1322   	; 0x2032 <SchedulerBasicP__TaskBasic__runTask+0x48e>
    255c:	c0 92 d1 03 	sts	0x03D1, r12
    2560:	d0 92 d2 03 	sts	0x03D2, r13
    2564:	e0 92 d3 03 	sts	0x03D3, r14
    2568:	f0 92 d4 03 	sts	0x03D4, r15
    256c:	21 e0       	ldi	r18, 0x01	; 1
    256e:	20 93 61 02 	sts	0x0261, r18
    2572:	3f b7       	in	r19, 0x3f	; 63
    2574:	f8 94       	cli
    2576:	20 93 a1 02 	sts	0x02A1, r18
    257a:	60 93 35 02 	sts	0x0235, r22
    257e:	70 93 36 02 	sts	0x0236, r23
    2582:	80 93 37 02 	sts	0x0237, r24
    2586:	90 93 38 02 	sts	0x0238, r25
    258a:	c0 92 dc 03 	sts	0x03DC, r12
    258e:	d0 92 dd 03 	sts	0x03DD, r13
    2592:	e0 92 de 03 	sts	0x03DE, r14
    2596:	f0 92 df 03 	sts	0x03DF, r15
    259a:	3f bf       	out	0x3f, r19	; 63
    259c:	0f 90       	pop	r0
    259e:	df 91       	pop	r29
    25a0:	cf 91       	pop	r28
    25a2:	1f 91       	pop	r17
    25a4:	0f 91       	pop	r16
    25a6:	ff 90       	pop	r15
    25a8:	ef 90       	pop	r14
    25aa:	df 90       	pop	r13
    25ac:	cf 90       	pop	r12
    25ae:	bf 90       	pop	r11
    25b0:	af 90       	pop	r10
    25b2:	9f 90       	pop	r9
    25b4:	8f 90       	pop	r8
    25b6:	7f 90       	pop	r7
    25b8:	6f 90       	pop	r6
    25ba:	5f 90       	pop	r5
    25bc:	4f 90       	pop	r4
    25be:	3f 90       	pop	r3
    25c0:	2f 90       	pop	r2
    25c2:	0c 94 a8 05 	jmp	0xb50	; 0xb50 <Atm1281AlarmAsyncP__0__setInterrupt>
    25c6:	0f 90       	pop	r0
    25c8:	df 91       	pop	r29
    25ca:	cf 91       	pop	r28
    25cc:	1f 91       	pop	r17
    25ce:	0f 91       	pop	r16
    25d0:	ff 90       	pop	r15
    25d2:	ef 90       	pop	r14
    25d4:	df 90       	pop	r13
    25d6:	cf 90       	pop	r12
    25d8:	bf 90       	pop	r11
    25da:	af 90       	pop	r10
    25dc:	9f 90       	pop	r9
    25de:	8f 90       	pop	r8
    25e0:	7f 90       	pop	r7
    25e2:	6f 90       	pop	r6
    25e4:	5f 90       	pop	r5
    25e6:	4f 90       	pop	r4
    25e8:	3f 90       	pop	r3
    25ea:	2f 90       	pop	r2
    25ec:	08 95       	ret

000025ee <__nesc_atomic_start>:
    25ee:	8f b7       	in	r24, 0x3f	; 63
    25f0:	f8 94       	cli
    25f2:	08 95       	ret

000025f4 <__nesc_atomic_end>:
    25f4:	8f bf       	out	0x3f, r24	; 63
    25f6:	08 95       	ret

000025f8 <__vector_13>:
    25f8:	1f 92       	push	r1
    25fa:	0f 92       	push	r0
    25fc:	0f b6       	in	r0, 0x3f	; 63
    25fe:	0f 92       	push	r0
    2600:	11 24       	eor	r1, r1
    2602:	0b b6       	in	r0, 0x3b	; 59
    2604:	0f 92       	push	r0
    2606:	0f 93       	push	r16
    2608:	1f 93       	push	r17
    260a:	2f 93       	push	r18
    260c:	3f 93       	push	r19
    260e:	4f 93       	push	r20
    2610:	5f 93       	push	r21
    2612:	6f 93       	push	r22
    2614:	7f 93       	push	r23
    2616:	8f 93       	push	r24
    2618:	9f 93       	push	r25
    261a:	af 93       	push	r26
    261c:	bf 93       	push	r27
    261e:	ef 93       	push	r30
    2620:	ff 93       	push	r31
    2622:	0e 94 f8 01 	call	0x3f0	; 0x3f0 <HplAtm1281Timer2AsyncP__stabiliseTimer2>
    2626:	80 91 b3 00 	lds	r24, 0x00B3
    262a:	90 e0       	ldi	r25, 0x00	; 0
    262c:	01 96       	adiw	r24, 0x01	; 1
    262e:	40 91 42 02 	lds	r20, 0x0242
    2632:	50 91 43 02 	lds	r21, 0x0243
    2636:	60 91 44 02 	lds	r22, 0x0244
    263a:	70 91 45 02 	lds	r23, 0x0245
    263e:	8a 01       	movw	r16, r20
    2640:	9b 01       	movw	r18, r22
    2642:	08 0f       	add	r16, r24
    2644:	19 1f       	adc	r17, r25
    2646:	21 1d       	adc	r18, r1
    2648:	31 1d       	adc	r19, r1
    264a:	00 93 42 02 	sts	0x0242, r16
    264e:	10 93 43 02 	sts	0x0243, r17
    2652:	20 93 44 02 	sts	0x0244, r18
    2656:	30 93 45 02 	sts	0x0245, r19
    265a:	78 94       	sei
    265c:	0e 94 a8 05 	call	0xb50	; 0xb50 <Atm1281AlarmAsyncP__0__setInterrupt>
    2660:	ff 91       	pop	r31
    2662:	ef 91       	pop	r30
    2664:	bf 91       	pop	r27
    2666:	af 91       	pop	r26
    2668:	9f 91       	pop	r25
    266a:	8f 91       	pop	r24
    266c:	7f 91       	pop	r23
    266e:	6f 91       	pop	r22
    2670:	5f 91       	pop	r21
    2672:	4f 91       	pop	r20
    2674:	3f 91       	pop	r19
    2676:	2f 91       	pop	r18
    2678:	1f 91       	pop	r17
    267a:	0f 91       	pop	r16
    267c:	0f 90       	pop	r0
    267e:	0b be       	out	0x3b, r0	; 59
    2680:	0f 90       	pop	r0
    2682:	0f be       	out	0x3f, r0	; 63
    2684:	0f 90       	pop	r0
    2686:	1f 90       	pop	r1
    2688:	18 95       	reti

0000268a <__vector_15>:
    268a:	1f 92       	push	r1
    268c:	0f 92       	push	r0
    268e:	0f b6       	in	r0, 0x3f	; 63
    2690:	0f 92       	push	r0
    2692:	11 24       	eor	r1, r1
    2694:	0b b6       	in	r0, 0x3b	; 59
    2696:	0f 92       	push	r0
    2698:	2f 93       	push	r18
    269a:	3f 93       	push	r19
    269c:	4f 93       	push	r20
    269e:	5f 93       	push	r21
    26a0:	6f 93       	push	r22
    26a2:	7f 93       	push	r23
    26a4:	8f 93       	push	r24
    26a6:	9f 93       	push	r25
    26a8:	af 93       	push	r26
    26aa:	bf 93       	push	r27
    26ac:	ef 93       	push	r30
    26ae:	ff 93       	push	r31
    26b0:	0e 94 f8 01 	call	0x3f0	; 0x3f0 <HplAtm1281Timer2AsyncP__stabiliseTimer2>
    26b4:	ff 91       	pop	r31
    26b6:	ef 91       	pop	r30
    26b8:	bf 91       	pop	r27
    26ba:	af 91       	pop	r26
    26bc:	9f 91       	pop	r25
    26be:	8f 91       	pop	r24
    26c0:	7f 91       	pop	r23
    26c2:	6f 91       	pop	r22
    26c4:	5f 91       	pop	r21
    26c6:	4f 91       	pop	r20
    26c8:	3f 91       	pop	r19
    26ca:	2f 91       	pop	r18
    26cc:	0f 90       	pop	r0
    26ce:	0b be       	out	0x3b, r0	; 59
    26d0:	0f 90       	pop	r0
    26d2:	0f be       	out	0x3f, r0	; 63
    26d4:	0f 90       	pop	r0
    26d6:	1f 90       	pop	r1
    26d8:	18 95       	reti

000026da <__vector_24>:
    26da:	1f 92       	push	r1
    26dc:	0f 92       	push	r0
    26de:	0f b6       	in	r0, 0x3f	; 63
    26e0:	0f 92       	push	r0
    26e2:	11 24       	eor	r1, r1
    26e4:	0b b6       	in	r0, 0x3b	; 59
    26e6:	0f 92       	push	r0
    26e8:	2f 93       	push	r18
    26ea:	3f 93       	push	r19
    26ec:	4f 93       	push	r20
    26ee:	5f 93       	push	r21
    26f0:	6f 93       	push	r22
    26f2:	7f 93       	push	r23
    26f4:	8f 93       	push	r24
    26f6:	9f 93       	push	r25
    26f8:	af 93       	push	r26
    26fa:	bf 93       	push	r27
    26fc:	ef 93       	push	r30
    26fe:	ff 93       	push	r31
    2700:	2e b5       	in	r18, 0x2e	; 46
    2702:	e0 91 b0 03 	lds	r30, 0x03B0
    2706:	f0 91 b1 03 	lds	r31, 0x03B1
    270a:	30 97       	sbiw	r30, 0x00	; 0
    270c:	39 f0       	breq	.+14     	; 0x271c <__vector_24+0x42>
    270e:	80 91 39 03 	lds	r24, 0x0339
    2712:	90 91 3a 03 	lds	r25, 0x033A
    2716:	e8 0f       	add	r30, r24
    2718:	f9 1f       	adc	r31, r25
    271a:	20 83       	st	Z, r18
    271c:	80 91 39 03 	lds	r24, 0x0339
    2720:	90 91 3a 03 	lds	r25, 0x033A
    2724:	01 96       	adiw	r24, 0x01	; 1
    2726:	90 93 3a 03 	sts	0x033A, r25
    272a:	80 93 39 03 	sts	0x0339, r24
    272e:	8c b5       	in	r24, 0x2c	; 44
    2730:	8f 77       	andi	r24, 0x7F	; 127
    2732:	8c bd       	out	0x2c, r24	; 44
    2734:	80 91 39 03 	lds	r24, 0x0339
    2738:	90 91 3a 03 	lds	r25, 0x033A
    273c:	60 91 2d 02 	lds	r22, 0x022D
    2740:	70 91 2e 02 	lds	r23, 0x022E
    2744:	86 17       	cp	r24, r22
    2746:	97 07       	cpc	r25, r23
    2748:	08 f0       	brcs	.+2      	; 0x274c <__vector_24+0x72>
    274a:	3f c0       	rjmp	.+126    	; 0x27ca <__vector_24+0xf0>
    274c:	20 91 6f 04 	lds	r18, 0x046F
    2750:	30 91 70 04 	lds	r19, 0x0470
    2754:	e0 91 b0 03 	lds	r30, 0x03B0
    2758:	f0 91 b1 03 	lds	r31, 0x03B1
    275c:	ac 01       	movw	r20, r24
    275e:	46 5f       	subi	r20, 0xF6	; 246
    2760:	5f 4f       	sbci	r21, 0xFF	; 255
    2762:	64 17       	cp	r22, r20
    2764:	75 07       	cpc	r23, r21
    2766:	08 f4       	brcc	.+2      	; 0x276a <__vector_24+0x90>
    2768:	ab 01       	movw	r20, r22
    276a:	41 50       	subi	r20, 0x01	; 1
    276c:	51 09       	sbc	r21, r1
    276e:	84 17       	cp	r24, r20
    2770:	95 07       	cpc	r25, r21
    2772:	c8 f4       	brcc	.+50     	; 0x27a6 <__vector_24+0xcc>
    2774:	21 15       	cp	r18, r1
    2776:	31 05       	cpc	r19, r1
    2778:	49 f0       	breq	.+18     	; 0x278c <__vector_24+0xb2>
    277a:	d9 01       	movw	r26, r18
    277c:	a8 0f       	add	r26, r24
    277e:	b9 1f       	adc	r27, r25
    2780:	6c 91       	ld	r22, X
    2782:	6e bd       	out	0x2e, r22	; 46
    2784:	0d b4       	in	r0, 0x2d	; 45
    2786:	07 fe       	sbrs	r0, 7
    2788:	fd cf       	rjmp	.-6      	; 0x2784 <__vector_24+0xaa>
    278a:	04 c0       	rjmp	.+8      	; 0x2794 <__vector_24+0xba>
    278c:	1e bc       	out	0x2e, r1	; 46
    278e:	0d b4       	in	r0, 0x2d	; 45
    2790:	07 fe       	sbrs	r0, 7
    2792:	fd cf       	rjmp	.-6      	; 0x278e <__vector_24+0xb4>
    2794:	6e b5       	in	r22, 0x2e	; 46
    2796:	30 97       	sbiw	r30, 0x00	; 0
    2798:	21 f0       	breq	.+8      	; 0x27a2 <__vector_24+0xc8>
    279a:	df 01       	movw	r26, r30
    279c:	a8 0f       	add	r26, r24
    279e:	b9 1f       	adc	r27, r25
    27a0:	6c 93       	st	X, r22
    27a2:	01 96       	adiw	r24, 0x01	; 1
    27a4:	e4 cf       	rjmp	.-56     	; 0x276e <__vector_24+0x94>
    27a6:	4c b5       	in	r20, 0x2c	; 44
    27a8:	40 68       	ori	r20, 0x80	; 128
    27aa:	4c bd       	out	0x2c, r20	; 44
    27ac:	21 15       	cp	r18, r1
    27ae:	31 05       	cpc	r19, r1
    27b0:	31 f0       	breq	.+12     	; 0x27be <__vector_24+0xe4>
    27b2:	f9 01       	movw	r30, r18
    27b4:	e8 0f       	add	r30, r24
    27b6:	f9 1f       	adc	r31, r25
    27b8:	20 81       	ld	r18, Z
    27ba:	2e bd       	out	0x2e, r18	; 46
    27bc:	01 c0       	rjmp	.+2      	; 0x27c0 <__vector_24+0xe6>
    27be:	1e bc       	out	0x2e, r1	; 46
    27c0:	90 93 3a 03 	sts	0x033A, r25
    27c4:	80 93 39 03 	sts	0x0339, r24
    27c8:	11 c0       	rjmp	.+34     	; 0x27ec <__vector_24+0x112>
    27ca:	10 92 b1 03 	sts	0x03B1, r1
    27ce:	10 92 b0 03 	sts	0x03B0, r1
    27d2:	10 92 70 04 	sts	0x0470, r1
    27d6:	10 92 6f 04 	sts	0x046F, r1
    27da:	10 92 2e 02 	sts	0x022E, r1
    27de:	10 92 2d 02 	sts	0x022D, r1
    27e2:	10 92 3a 03 	sts	0x033A, r1
    27e6:	10 92 39 03 	sts	0x0339, r1
    27ea:	8e b5       	in	r24, 0x2e	; 46
    27ec:	ff 91       	pop	r31
    27ee:	ef 91       	pop	r30
    27f0:	bf 91       	pop	r27
    27f2:	af 91       	pop	r26
    27f4:	9f 91       	pop	r25
    27f6:	8f 91       	pop	r24
    27f8:	7f 91       	pop	r23
    27fa:	6f 91       	pop	r22
    27fc:	5f 91       	pop	r21
    27fe:	4f 91       	pop	r20
    2800:	3f 91       	pop	r19
    2802:	2f 91       	pop	r18
    2804:	0f 90       	pop	r0
    2806:	0b be       	out	0x3b, r0	; 59
    2808:	0f 90       	pop	r0
    280a:	0f be       	out	0x3f, r0	; 63
    280c:	0f 90       	pop	r0
    280e:	1f 90       	pop	r1
    2810:	18 95       	reti

00002812 <__vector_17>:
    2812:	78 94       	sei
    2814:	1f 92       	push	r1
    2816:	0f 92       	push	r0
    2818:	0f b6       	in	r0, 0x3f	; 63
    281a:	0f 92       	push	r0
    281c:	11 24       	eor	r1, r1
    281e:	0b b6       	in	r0, 0x3b	; 59
    2820:	0f 92       	push	r0
    2822:	2f 93       	push	r18
    2824:	3f 93       	push	r19
    2826:	4f 93       	push	r20
    2828:	5f 93       	push	r21
    282a:	6f 93       	push	r22
    282c:	7f 93       	push	r23
    282e:	8f 93       	push	r24
    2830:	9f 93       	push	r25
    2832:	af 93       	push	r26
    2834:	bf 93       	push	r27
    2836:	ef 93       	push	r30
    2838:	ff 93       	push	r31
    283a:	80 91 6f 00 	lds	r24, 0x006F
    283e:	8d 7f       	andi	r24, 0xFD	; 253
    2840:	80 93 6f 00 	sts	0x006F, r24
    2844:	78 94       	sei
    2846:	8f b7       	in	r24, 0x3f	; 63
    2848:	f8 94       	cli
    284a:	90 91 b2 03 	lds	r25, 0x03B2
    284e:	91 30       	cpi	r25, 0x01	; 1
    2850:	19 f4       	brne	.+6      	; 0x2858 <__vector_17+0x46>
    2852:	92 e0       	ldi	r25, 0x02	; 2
    2854:	90 93 b2 03 	sts	0x03B2, r25
    2858:	8f bf       	out	0x3f, r24	; 63
    285a:	0e 94 c1 0d 	call	0x1b82	; 0x1b82 <TaskletC__0__Tasklet__schedule>
    285e:	ff 91       	pop	r31
    2860:	ef 91       	pop	r30
    2862:	bf 91       	pop	r27
    2864:	af 91       	pop	r26
    2866:	9f 91       	pop	r25
    2868:	8f 91       	pop	r24
    286a:	7f 91       	pop	r23
    286c:	6f 91       	pop	r22
    286e:	5f 91       	pop	r21
    2870:	4f 91       	pop	r20
    2872:	3f 91       	pop	r19
    2874:	2f 91       	pop	r18
    2876:	0f 90       	pop	r0
    2878:	0b be       	out	0x3b, r0	; 59
    287a:	0f 90       	pop	r0
    287c:	0f be       	out	0x3f, r0	; 63
    287e:	0f 90       	pop	r0
    2880:	1f 90       	pop	r1
    2882:	18 95       	reti

00002884 <__vector_18>:
    2884:	78 94       	sei
    2886:	1f 92       	push	r1
    2888:	0f 92       	push	r0
    288a:	0f b6       	in	r0, 0x3f	; 63
    288c:	0f 92       	push	r0
    288e:	11 24       	eor	r1, r1
    2890:	0f 90       	pop	r0
    2892:	0f be       	out	0x3f, r0	; 63
    2894:	0f 90       	pop	r0
    2896:	1f 90       	pop	r1
    2898:	18 95       	reti

0000289a <__vector_19>:
    289a:	78 94       	sei
    289c:	1f 92       	push	r1
    289e:	0f 92       	push	r0
    28a0:	0f b6       	in	r0, 0x3f	; 63
    28a2:	0f 92       	push	r0
    28a4:	11 24       	eor	r1, r1
    28a6:	0f 90       	pop	r0
    28a8:	0f be       	out	0x3f, r0	; 63
    28aa:	0f 90       	pop	r0
    28ac:	1f 90       	pop	r1
    28ae:	18 95       	reti

000028b0 <__vector_16>:
    28b0:	78 94       	sei
    28b2:	1f 92       	push	r1
    28b4:	0f 92       	push	r0
    28b6:	0f b6       	in	r0, 0x3f	; 63
    28b8:	0f 92       	push	r0
    28ba:	11 24       	eor	r1, r1
    28bc:	0b b6       	in	r0, 0x3b	; 59
    28be:	0f 92       	push	r0
    28c0:	2f 93       	push	r18
    28c2:	3f 93       	push	r19
    28c4:	4f 93       	push	r20
    28c6:	5f 93       	push	r21
    28c8:	6f 93       	push	r22
    28ca:	7f 93       	push	r23
    28cc:	8f 93       	push	r24
    28ce:	9f 93       	push	r25
    28d0:	af 93       	push	r26
    28d2:	bf 93       	push	r27
    28d4:	ef 93       	push	r30
    28d6:	ff 93       	push	r31
    28d8:	e6 e8       	ldi	r30, 0x86	; 134
    28da:	f0 e0       	ldi	r31, 0x00	; 0
    28dc:	80 81       	ld	r24, Z
    28de:	91 81       	ldd	r25, Z+1	; 0x01
    28e0:	20 81       	ld	r18, Z
    28e2:	31 81       	ldd	r19, Z+1	; 0x01
    28e4:	8f b7       	in	r24, 0x3f	; 63
    28e6:	f8 94       	cli
    28e8:	30 93 aa 02 	sts	0x02AA, r19
    28ec:	20 93 a9 02 	sts	0x02A9, r18
    28f0:	91 e0       	ldi	r25, 0x01	; 1
    28f2:	90 93 cb 03 	sts	0x03CB, r25
    28f6:	8f bf       	out	0x3f, r24	; 63
    28f8:	0e 94 c1 0d 	call	0x1b82	; 0x1b82 <TaskletC__0__Tasklet__schedule>
    28fc:	ff 91       	pop	r31
    28fe:	ef 91       	pop	r30
    2900:	bf 91       	pop	r27
    2902:	af 91       	pop	r26
    2904:	9f 91       	pop	r25
    2906:	8f 91       	pop	r24
    2908:	7f 91       	pop	r23
    290a:	6f 91       	pop	r22
    290c:	5f 91       	pop	r21
    290e:	4f 91       	pop	r20
    2910:	3f 91       	pop	r19
    2912:	2f 91       	pop	r18
    2914:	0f 90       	pop	r0
    2916:	0b be       	out	0x3b, r0	; 59
    2918:	0f 90       	pop	r0
    291a:	0f be       	out	0x3f, r0	; 63
    291c:	0f 90       	pop	r0
    291e:	1f 90       	pop	r1
    2920:	18 95       	reti

00002922 <__vector_20>:
    2922:	78 94       	sei
    2924:	1f 92       	push	r1
    2926:	0f 92       	push	r0
    2928:	0f b6       	in	r0, 0x3f	; 63
    292a:	0f 92       	push	r0
    292c:	11 24       	eor	r1, r1
    292e:	2f 93       	push	r18
    2930:	8f 93       	push	r24
    2932:	9f 93       	push	r25
    2934:	af 93       	push	r26
    2936:	bf 93       	push	r27
    2938:	2f b7       	in	r18, 0x3f	; 63
    293a:	f8 94       	cli
    293c:	80 91 3f 03 	lds	r24, 0x033F
    2940:	90 91 40 03 	lds	r25, 0x0340
    2944:	a0 91 41 03 	lds	r26, 0x0341
    2948:	b0 91 42 03 	lds	r27, 0x0342
    294c:	01 96       	adiw	r24, 0x01	; 1
    294e:	a1 1d       	adc	r26, r1
    2950:	b1 1d       	adc	r27, r1
    2952:	80 93 3f 03 	sts	0x033F, r24
    2956:	90 93 40 03 	sts	0x0340, r25
    295a:	a0 93 41 03 	sts	0x0341, r26
    295e:	b0 93 42 03 	sts	0x0342, r27
    2962:	2f bf       	out	0x3f, r18	; 63
    2964:	bf 91       	pop	r27
    2966:	af 91       	pop	r26
    2968:	9f 91       	pop	r25
    296a:	8f 91       	pop	r24
    296c:	2f 91       	pop	r18
    296e:	0f 90       	pop	r0
    2970:	0f be       	out	0x3f, r0	; 63
    2972:	0f 90       	pop	r0
    2974:	1f 90       	pop	r1
    2976:	18 95       	reti

00002978 <__vector_29>:
    2978:	1f 92       	push	r1
    297a:	0f 92       	push	r0
    297c:	0f b6       	in	r0, 0x3f	; 63
    297e:	0f 92       	push	r0
    2980:	11 24       	eor	r1, r1
    2982:	0b b6       	in	r0, 0x3b	; 59
    2984:	0f 92       	push	r0
    2986:	2f 93       	push	r18
    2988:	3f 93       	push	r19
    298a:	4f 93       	push	r20
    298c:	5f 93       	push	r21
    298e:	6f 93       	push	r22
    2990:	7f 93       	push	r23
    2992:	8f 93       	push	r24
    2994:	9f 93       	push	r25
    2996:	af 93       	push	r26
    2998:	bf 93       	push	r27
    299a:	ef 93       	push	r30
    299c:	ff 93       	push	r31
    299e:	20 91 78 00 	lds	r18, 0x0078
    29a2:	30 91 79 00 	lds	r19, 0x0079
    29a6:	78 94       	sei
    29a8:	4f b7       	in	r20, 0x3f	; 63
    29aa:	f8 94       	cli
    29ac:	80 91 62 02 	lds	r24, 0x0262
    29b0:	81 fb       	bst	r24, 1
    29b2:	99 27       	eor	r25, r25
    29b4:	90 f9       	bld	r25, 0
    29b6:	81 70       	andi	r24, 0x01	; 1
    29b8:	4f bf       	out	0x3f, r20	; 63
    29ba:	81 11       	cpse	r24, r1
    29bc:	22 c0       	rjmp	.+68     	; 0x2a02 <__vector_29+0x8a>
    29be:	80 91 7a 00 	lds	r24, 0x007A
    29c2:	87 7f       	andi	r24, 0xF7	; 247
    29c4:	80 93 7a 00 	sts	0x007A, r24
    29c8:	80 91 e4 02 	lds	r24, 0x02E4
    29cc:	81 30       	cpi	r24, 0x01	; 1
    29ce:	19 f0       	breq	.+6      	; 0x29d6 <__vector_29+0x5e>
    29d0:	82 30       	cpi	r24, 0x02	; 2
    29d2:	91 f0       	breq	.+36     	; 0x29f8 <__vector_29+0x80>
    29d4:	34 c0       	rjmp	.+104    	; 0x2a3e <__vector_29+0xc6>
    29d6:	91 11       	cpse	r25, r1
    29d8:	07 c0       	rjmp	.+14     	; 0x29e8 <__vector_29+0x70>
    29da:	8d e7       	ldi	r24, 0x7D	; 125
    29dc:	90 e0       	ldi	r25, 0x00	; 0
    29de:	0e 94 71 04 	call	0x8e2	; 0x8e2 <BusyWaitMicroC__BusyWait__wait.part.72>
    29e2:	0e 94 a4 04 	call	0x948	; 0x948 <AdcP__sample>
    29e6:	2b c0       	rjmp	.+86     	; 0x2a3e <__vector_29+0xc6>
    29e8:	30 93 b6 03 	sts	0x03B6, r19
    29ec:	20 93 b5 03 	sts	0x03B5, r18
    29f0:	8c e0       	ldi	r24, 0x0C	; 12
    29f2:	0e 94 01 02 	call	0x402	; 0x402 <SchedulerBasicP__TaskBasic__postTask>
    29f6:	23 c0       	rjmp	.+70     	; 0x2a3e <__vector_29+0xc6>
    29f8:	99 23       	and	r25, r25
    29fa:	79 f3       	breq	.-34     	; 0x29da <__vector_29+0x62>
    29fc:	10 92 e4 02 	sts	0x02E4, r1
    2a00:	1e c0       	rjmp	.+60     	; 0x2a3e <__vector_29+0xc6>
    2a02:	8f b7       	in	r24, 0x3f	; 63
    2a04:	f8 94       	cli
    2a06:	8f bf       	out	0x3f, r24	; 63
    2a08:	2f b7       	in	r18, 0x3f	; 63
    2a0a:	f8 94       	cli
    2a0c:	80 91 7a 00 	lds	r24, 0x007A
    2a10:	86 fb       	bst	r24, 6
    2a12:	99 27       	eor	r25, r25
    2a14:	90 f9       	bld	r25, 0
    2a16:	87 7f       	andi	r24, 0xF7	; 247
    2a18:	80 61       	ori	r24, 0x10	; 16
    2a1a:	90 fb       	bst	r25, 0
    2a1c:	86 f9       	bld	r24, 6
    2a1e:	8f 77       	andi	r24, 0x7F	; 127
    2a20:	80 93 7a 00 	sts	0x007A, r24
    2a24:	87 7f       	andi	r24, 0xF7	; 247
    2a26:	80 61       	ori	r24, 0x10	; 16
    2a28:	8f 7b       	andi	r24, 0xBF	; 191
    2a2a:	8f 77       	andi	r24, 0x7F	; 127
    2a2c:	80 93 7a 00 	sts	0x007A, r24
    2a30:	87 7f       	andi	r24, 0xF7	; 247
    2a32:	80 61       	ori	r24, 0x10	; 16
    2a34:	8f 7b       	andi	r24, 0xBF	; 191
    2a36:	80 68       	ori	r24, 0x80	; 128
    2a38:	80 93 7a 00 	sts	0x007A, r24
    2a3c:	2f bf       	out	0x3f, r18	; 63
    2a3e:	ff 91       	pop	r31
    2a40:	ef 91       	pop	r30
    2a42:	bf 91       	pop	r27
    2a44:	af 91       	pop	r26
    2a46:	9f 91       	pop	r25
    2a48:	8f 91       	pop	r24
    2a4a:	7f 91       	pop	r23
    2a4c:	6f 91       	pop	r22
    2a4e:	5f 91       	pop	r21
    2a50:	4f 91       	pop	r20
    2a52:	3f 91       	pop	r19
    2a54:	2f 91       	pop	r18
    2a56:	0f 90       	pop	r0
    2a58:	0b be       	out	0x3b, r0	; 59
    2a5a:	0f 90       	pop	r0
    2a5c:	0f be       	out	0x3f, r0	; 63
    2a5e:	0f 90       	pop	r0
    2a60:	1f 90       	pop	r1
    2a62:	18 95       	reti

00002a64 <__vector_25>:
    2a64:	1f 92       	push	r1
    2a66:	0f 92       	push	r0
    2a68:	0f b6       	in	r0, 0x3f	; 63
    2a6a:	0f 92       	push	r0
    2a6c:	11 24       	eor	r1, r1
    2a6e:	0b b6       	in	r0, 0x3b	; 59
    2a70:	0f 92       	push	r0
    2a72:	2f 93       	push	r18
    2a74:	3f 93       	push	r19
    2a76:	4f 93       	push	r20
    2a78:	5f 93       	push	r21
    2a7a:	6f 93       	push	r22
    2a7c:	7f 93       	push	r23
    2a7e:	8f 93       	push	r24
    2a80:	9f 93       	push	r25
    2a82:	af 93       	push	r26
    2a84:	bf 93       	push	r27
    2a86:	ef 93       	push	r30
    2a88:	ff 93       	push	r31
    2a8a:	80 91 c0 00 	lds	r24, 0x00C0
    2a8e:	87 ff       	sbrs	r24, 7
    2a90:	4a c0       	rjmp	.+148    	; 0x2b26 <__vector_25+0xc2>
    2a92:	60 91 c6 00 	lds	r22, 0x00C6
    2a96:	20 91 45 03 	lds	r18, 0x0345
    2a9a:	30 91 46 03 	lds	r19, 0x0346
    2a9e:	21 15       	cp	r18, r1
    2aa0:	31 05       	cpc	r19, r1
    2aa2:	51 f1       	breq	.+84     	; 0x2af8 <__vector_25+0x94>
    2aa4:	80 91 72 04 	lds	r24, 0x0472
    2aa8:	90 91 73 04 	lds	r25, 0x0473
    2aac:	ac 01       	movw	r20, r24
    2aae:	4f 5f       	subi	r20, 0xFF	; 255
    2ab0:	5f 4f       	sbci	r21, 0xFF	; 255
    2ab2:	50 93 73 04 	sts	0x0473, r21
    2ab6:	40 93 72 04 	sts	0x0472, r20
    2aba:	f9 01       	movw	r30, r18
    2abc:	e8 0f       	add	r30, r24
    2abe:	f9 1f       	adc	r31, r25
    2ac0:	60 83       	st	Z, r22
    2ac2:	20 91 72 04 	lds	r18, 0x0472
    2ac6:	30 91 73 04 	lds	r19, 0x0473
    2aca:	80 91 7c 04 	lds	r24, 0x047C
    2ace:	90 91 7d 04 	lds	r25, 0x047D
    2ad2:	28 17       	cp	r18, r24
    2ad4:	39 07       	cpc	r19, r25
    2ad6:	38 f1       	brcs	.+78     	; 0x2b26 <__vector_25+0xc2>
    2ad8:	10 92 46 03 	sts	0x0346, r1
    2adc:	10 92 45 03 	sts	0x0345, r1
    2ae0:	80 91 b4 03 	lds	r24, 0x03B4
    2ae4:	83 30       	cpi	r24, 0x03	; 3
    2ae6:	f9 f0       	breq	.+62     	; 0x2b26 <__vector_25+0xc2>
    2ae8:	80 91 c1 00 	lds	r24, 0x00C1
    2aec:	8f 77       	andi	r24, 0x7F	; 127
    2aee:	80 93 c1 00 	sts	0x00C1, r24
    2af2:	10 92 b4 03 	sts	0x03B4, r1
    2af6:	17 c0       	rjmp	.+46     	; 0x2b26 <__vector_25+0xc2>
    2af8:	6e 37       	cpi	r22, 0x7E	; 126
    2afa:	19 f4       	brne	.+6      	; 0x2b02 <__vector_25+0x9e>
    2afc:	60 e0       	ldi	r22, 0x00	; 0
    2afe:	81 e0       	ldi	r24, 0x01	; 1
    2b00:	10 c0       	rjmp	.+32     	; 0x2b22 <__vector_25+0xbe>
    2b02:	80 91 14 02 	lds	r24, 0x0214
    2b06:	6d 37       	cpi	r22, 0x7D	; 125
    2b08:	21 f4       	brne	.+8      	; 0x2b12 <__vector_25+0xae>
    2b0a:	82 60       	ori	r24, 0x02	; 2
    2b0c:	80 93 14 02 	sts	0x0214, r24
    2b10:	0a c0       	rjmp	.+20     	; 0x2b26 <__vector_25+0xc2>
    2b12:	81 ff       	sbrs	r24, 1
    2b14:	05 c0       	rjmp	.+10     	; 0x2b20 <__vector_25+0xbc>
    2b16:	8d 7f       	andi	r24, 0xFD	; 253
    2b18:	80 93 14 02 	sts	0x0214, r24
    2b1c:	80 e2       	ldi	r24, 0x20	; 32
    2b1e:	68 27       	eor	r22, r24
    2b20:	80 e0       	ldi	r24, 0x00	; 0
    2b22:	0e 94 38 03 	call	0x670	; 0x670 <SerialP__rx_state_machine>
    2b26:	ff 91       	pop	r31
    2b28:	ef 91       	pop	r30
    2b2a:	bf 91       	pop	r27
    2b2c:	af 91       	pop	r26
    2b2e:	9f 91       	pop	r25
    2b30:	8f 91       	pop	r24
    2b32:	7f 91       	pop	r23
    2b34:	6f 91       	pop	r22
    2b36:	5f 91       	pop	r21
    2b38:	4f 91       	pop	r20
    2b3a:	3f 91       	pop	r19
    2b3c:	2f 91       	pop	r18
    2b3e:	0f 90       	pop	r0
    2b40:	0b be       	out	0x3b, r0	; 59
    2b42:	0f 90       	pop	r0
    2b44:	0f be       	out	0x3f, r0	; 63
    2b46:	0f 90       	pop	r0
    2b48:	1f 90       	pop	r1
    2b4a:	18 95       	reti

00002b4c <__vector_27>:
    2b4c:	78 94       	sei
    2b4e:	1f 92       	push	r1
    2b50:	0f 92       	push	r0
    2b52:	0f b6       	in	r0, 0x3f	; 63
    2b54:	0f 92       	push	r0
    2b56:	11 24       	eor	r1, r1
    2b58:	0b b6       	in	r0, 0x3b	; 59
    2b5a:	0f 92       	push	r0
    2b5c:	ef 92       	push	r14
    2b5e:	ff 92       	push	r15
    2b60:	0f 93       	push	r16
    2b62:	1f 93       	push	r17
    2b64:	2f 93       	push	r18
    2b66:	3f 93       	push	r19
    2b68:	4f 93       	push	r20
    2b6a:	5f 93       	push	r21
    2b6c:	6f 93       	push	r22
    2b6e:	7f 93       	push	r23
    2b70:	8f 93       	push	r24
    2b72:	9f 93       	push	r25
    2b74:	af 93       	push	r26
    2b76:	bf 93       	push	r27
    2b78:	cf 93       	push	r28
    2b7a:	df 93       	push	r29
    2b7c:	ef 93       	push	r30
    2b7e:	ff 93       	push	r31
    2b80:	80 91 9d 02 	lds	r24, 0x029D
    2b84:	90 91 9e 02 	lds	r25, 0x029E
    2b88:	20 91 ce 03 	lds	r18, 0x03CE
    2b8c:	30 91 cf 03 	lds	r19, 0x03CF
    2b90:	82 17       	cp	r24, r18
    2b92:	93 07       	cpc	r25, r19
    2b94:	d0 f4       	brcc	.+52     	; 0x2bca <__vector_27+0x7e>
    2b96:	20 91 ae 02 	lds	r18, 0x02AE
    2b9a:	30 91 af 02 	lds	r19, 0x02AF
    2b9e:	ac 01       	movw	r20, r24
    2ba0:	4f 5f       	subi	r20, 0xFF	; 255
    2ba2:	5f 4f       	sbci	r21, 0xFF	; 255
    2ba4:	50 93 9e 02 	sts	0x029E, r21
    2ba8:	40 93 9d 02 	sts	0x029D, r20
    2bac:	f9 01       	movw	r30, r18
    2bae:	e8 0f       	add	r30, r24
    2bb0:	f9 1f       	adc	r31, r25
    2bb2:	80 81       	ld	r24, Z
    2bb4:	9f b7       	in	r25, 0x3f	; 63
    2bb6:	f8 94       	cli
    2bb8:	80 93 c6 00 	sts	0x00C6, r24
    2bbc:	80 91 c0 00 	lds	r24, 0x00C0
    2bc0:	80 64       	ori	r24, 0x40	; 64
    2bc2:	80 93 c0 00 	sts	0x00C0, r24
    2bc6:	9f bf       	out	0x3f, r25	; 63
    2bc8:	b2 c0       	rjmp	.+356    	; 0x2d2e <__vector_27+0x1e2>
    2bca:	10 92 af 02 	sts	0x02AF, r1
    2bce:	10 92 ae 02 	sts	0x02AE, r1
    2bd2:	10 92 9f 02 	sts	0x029F, r1
    2bd6:	80 91 c1 00 	lds	r24, 0x00C1
    2bda:	8f 7b       	andi	r24, 0xBF	; 191
    2bdc:	80 93 c1 00 	sts	0x00C1, r24
    2be0:	0f b7       	in	r16, 0x3f	; 63
    2be2:	f8 94       	cli
    2be4:	80 91 14 02 	lds	r24, 0x0214
    2be8:	98 2f       	mov	r25, r24
    2bea:	91 70       	andi	r25, 0x01	; 1
    2bec:	f9 2e       	mov	r15, r25
    2bee:	80 ff       	sbrs	r24, 0
    2bf0:	0a c0       	rjmp	.+20     	; 0x2c06 <__vector_27+0xba>
    2bf2:	8e 7f       	andi	r24, 0xFE	; 254
    2bf4:	80 93 14 02 	sts	0x0214, r24
    2bf8:	80 91 bc 03 	lds	r24, 0x03BC
    2bfc:	80 93 60 02 	sts	0x0260, r24
    2c00:	0e 94 d5 06 	call	0xdaa	; 0xdaa <Atm128UartP__0__UartStream__send.constprop.174>
    2c04:	93 c0       	rjmp	.+294    	; 0x2d2c <__vector_27+0x1e0>
    2c06:	e0 91 b7 03 	lds	r30, 0x03B7
    2c0a:	8e 2f       	mov	r24, r30
    2c0c:	90 e0       	ldi	r25, 0x00	; 0
    2c0e:	fc 01       	movw	r30, r24
    2c10:	31 97       	sbiw	r30, 0x01	; 1
    2c12:	e8 30       	cpi	r30, 0x08	; 8
    2c14:	f1 05       	cpc	r31, r1
    2c16:	08 f0       	brcs	.+2      	; 0x2c1a <__vector_27+0xce>
    2c18:	84 c0       	rjmp	.+264    	; 0x2d22 <__vector_27+0x1d6>
    2c1a:	e5 58       	subi	r30, 0x85	; 133
    2c1c:	ff 4f       	sbci	r31, 0xFF	; 255
    2c1e:	0c 94 67 19 	jmp	0x32ce	; 0x32ce <__tablejump2__>
    2c22:	80 91 ad 02 	lds	r24, 0x02AD
    2c26:	0e 94 15 07 	call	0xe2a	; 0xe2a <HdlcTranslateC__SerialFrameComm__putData>
    2c2a:	18 2f       	mov	r17, r24
    2c2c:	83 e0       	ldi	r24, 0x03	; 3
    2c2e:	80 93 b7 03 	sts	0x03B7, r24
    2c32:	60 91 ad 02 	lds	r22, 0x02AD
    2c36:	0a c0       	rjmp	.+20     	; 0x2c4c <__vector_27+0x100>
    2c38:	80 91 d8 03 	lds	r24, 0x03D8
    2c3c:	0e 94 15 07 	call	0xe2a	; 0xe2a <HdlcTranslateC__SerialFrameComm__putData>
    2c40:	18 2f       	mov	r17, r24
    2c42:	83 e0       	ldi	r24, 0x03	; 3
    2c44:	80 93 b7 03 	sts	0x03B7, r24
    2c48:	60 91 d8 03 	lds	r22, 0x03D8
    2c4c:	80 91 79 04 	lds	r24, 0x0479
    2c50:	90 91 7a 04 	lds	r25, 0x047A
    2c54:	0e 94 ed 02 	call	0x5da	; 0x5da <crcByte>
    2c58:	90 93 7a 04 	sts	0x047A, r25
    2c5c:	80 93 79 04 	sts	0x0479, r24
    2c60:	5e c0       	rjmp	.+188    	; 0x2d1e <__vector_27+0x1d2>
    2c62:	e0 91 47 03 	lds	r30, 0x0347
    2c66:	f0 e0       	ldi	r31, 0x00	; 0
    2c68:	ee 0f       	add	r30, r30
    2c6a:	ff 1f       	adc	r31, r31
    2c6c:	ef 54       	subi	r30, 0x4F	; 79
    2c6e:	fd 4f       	sbci	r31, 0xFD	; 253
    2c70:	81 81       	ldd	r24, Z+1	; 0x01
    2c72:	0e 94 15 07 	call	0xe2a	; 0xe2a <HdlcTranslateC__SerialFrameComm__putData>
    2c76:	18 2f       	mov	r17, r24
    2c78:	e0 90 47 03 	lds	r14, 0x0347
    2c7c:	ce 2d       	mov	r28, r14
    2c7e:	d0 e0       	ldi	r29, 0x00	; 0
    2c80:	cc 0f       	add	r28, r28
    2c82:	dd 1f       	adc	r29, r29
    2c84:	fe 01       	movw	r30, r28
    2c86:	ef 54       	subi	r30, 0x4F	; 79
    2c88:	fd 4f       	sbci	r31, 0xFD	; 253
    2c8a:	61 81       	ldd	r22, Z+1	; 0x01
    2c8c:	80 91 79 04 	lds	r24, 0x0479
    2c90:	90 91 7a 04 	lds	r25, 0x047A
    2c94:	0e 94 ed 02 	call	0x5da	; 0x5da <crcByte>
    2c98:	90 93 7a 04 	sts	0x047A, r25
    2c9c:	80 93 79 04 	sts	0x0479, r24
    2ca0:	90 91 ab 02 	lds	r25, 0x02AB
    2ca4:	9f 5f       	subi	r25, 0xFF	; 255
    2ca6:	90 93 ab 02 	sts	0x02AB, r25
    2caa:	81 e0       	ldi	r24, 0x01	; 1
    2cac:	e8 12       	cpse	r14, r24
    2cae:	1e c0       	rjmp	.+60     	; 0x2cec <__vector_27+0x1a0>
    2cb0:	80 91 1d 02 	lds	r24, 0x021D
    2cb4:	e0 91 21 02 	lds	r30, 0x0221
    2cb8:	f0 91 22 02 	lds	r31, 0x0222
    2cbc:	e8 0f       	add	r30, r24
    2cbe:	f1 1d       	adc	r31, r1
    2cc0:	20 81       	ld	r18, Z
    2cc2:	8f 5f       	subi	r24, 0xFF	; 255
    2cc4:	80 93 1d 02 	sts	0x021D, r24
    2cc8:	30 91 1e 02 	lds	r19, 0x021E
    2ccc:	38 17       	cp	r19, r24
    2cce:	20 f4       	brcc	.+8      	; 0x2cd8 <__vector_27+0x18c>
    2cd0:	82 e0       	ldi	r24, 0x02	; 2
    2cd2:	80 93 b3 02 	sts	0x02B3, r24
    2cd6:	01 c0       	rjmp	.+2      	; 0x2cda <__vector_27+0x18e>
    2cd8:	f2 2e       	mov	r15, r18
    2cda:	cf 54       	subi	r28, 0x4F	; 79
    2cdc:	dd 4f       	sbci	r29, 0xFD	; 253
    2cde:	88 81       	ld	r24, Y
    2ce0:	82 30       	cpi	r24, 0x02	; 2
    2ce2:	21 f0       	breq	.+8      	; 0x2cec <__vector_27+0x1a0>
    2ce4:	9f 3f       	cpi	r25, 0xFF	; 255
    2ce6:	11 f0       	breq	.+4      	; 0x2cec <__vector_27+0x1a0>
    2ce8:	f9 82       	std	Y+1, r15	; 0x01
    2cea:	19 c0       	rjmp	.+50     	; 0x2d1e <__vector_27+0x1d2>
    2cec:	84 e0       	ldi	r24, 0x04	; 4
    2cee:	12 c0       	rjmp	.+36     	; 0x2d14 <__vector_27+0x1c8>
    2cf0:	80 91 79 04 	lds	r24, 0x0479
    2cf4:	0e 94 15 07 	call	0xe2a	; 0xe2a <HdlcTranslateC__SerialFrameComm__putData>
    2cf8:	18 2f       	mov	r17, r24
    2cfa:	85 e0       	ldi	r24, 0x05	; 5
    2cfc:	0b c0       	rjmp	.+22     	; 0x2d14 <__vector_27+0x1c8>
    2cfe:	80 91 7a 04 	lds	r24, 0x047A
    2d02:	0e 94 15 07 	call	0xe2a	; 0xe2a <HdlcTranslateC__SerialFrameComm__putData>
    2d06:	18 2f       	mov	r17, r24
    2d08:	86 e0       	ldi	r24, 0x06	; 6
    2d0a:	04 c0       	rjmp	.+8      	; 0x2d14 <__vector_27+0x1c8>
    2d0c:	0e 94 27 07 	call	0xe4e	; 0xe4e <HdlcTranslateC__SerialFrameComm__putDelimiter>
    2d10:	18 2f       	mov	r17, r24
    2d12:	87 e0       	ldi	r24, 0x07	; 7
    2d14:	80 93 b7 03 	sts	0x03B7, r24
    2d18:	02 c0       	rjmp	.+4      	; 0x2d1e <__vector_27+0x1d2>
    2d1a:	88 e0       	ldi	r24, 0x08	; 8
    2d1c:	03 c0       	rjmp	.+6      	; 0x2d24 <__vector_27+0x1d8>
    2d1e:	11 23       	and	r17, r17
    2d20:	29 f0       	breq	.+10     	; 0x2d2c <__vector_27+0x1e0>
    2d22:	89 e0       	ldi	r24, 0x09	; 9
    2d24:	80 93 b7 03 	sts	0x03B7, r24
    2d28:	0e 94 35 02 	call	0x46a	; 0x46a <SerialP__MaybeScheduleTx>
    2d2c:	0f bf       	out	0x3f, r16	; 63
    2d2e:	ff 91       	pop	r31
    2d30:	ef 91       	pop	r30
    2d32:	df 91       	pop	r29
    2d34:	cf 91       	pop	r28
    2d36:	bf 91       	pop	r27
    2d38:	af 91       	pop	r26
    2d3a:	9f 91       	pop	r25
    2d3c:	8f 91       	pop	r24
    2d3e:	7f 91       	pop	r23
    2d40:	6f 91       	pop	r22
    2d42:	5f 91       	pop	r21
    2d44:	4f 91       	pop	r20
    2d46:	3f 91       	pop	r19
    2d48:	2f 91       	pop	r18
    2d4a:	1f 91       	pop	r17
    2d4c:	0f 91       	pop	r16
    2d4e:	ff 90       	pop	r15
    2d50:	ef 90       	pop	r14
    2d52:	0f 90       	pop	r0
    2d54:	0b be       	out	0x3b, r0	; 59
    2d56:	0f 90       	pop	r0
    2d58:	0f be       	out	0x3f, r0	; 63
    2d5a:	0f 90       	pop	r0
    2d5c:	1f 90       	pop	r1
    2d5e:	18 95       	reti

00002d60 <__vector_36>:
    2d60:	1f 92       	push	r1
    2d62:	0f 92       	push	r0
    2d64:	0f b6       	in	r0, 0x3f	; 63
    2d66:	0f 92       	push	r0
    2d68:	11 24       	eor	r1, r1
    2d6a:	8f 93       	push	r24
    2d6c:	80 91 c8 00 	lds	r24, 0x00C8
    2d70:	87 fd       	sbrc	r24, 7
    2d72:	80 91 ce 00 	lds	r24, 0x00CE
    2d76:	8f 91       	pop	r24
    2d78:	0f 90       	pop	r0
    2d7a:	0f be       	out	0x3f, r0	; 63
    2d7c:	0f 90       	pop	r0
    2d7e:	1f 90       	pop	r1
    2d80:	18 95       	reti

00002d82 <__vector_38>:
    2d82:	78 94       	sei
    2d84:	1f 92       	push	r1
    2d86:	0f 92       	push	r0
    2d88:	0f b6       	in	r0, 0x3f	; 63
    2d8a:	0f 92       	push	r0
    2d8c:	11 24       	eor	r1, r1
    2d8e:	0f 90       	pop	r0
    2d90:	0f be       	out	0x3f, r0	; 63
    2d92:	0f 90       	pop	r0
    2d94:	1f 90       	pop	r1
    2d96:	18 95       	reti

00002d98 <__vector_32>:
    2d98:	78 94       	sei
    2d9a:	1f 92       	push	r1
    2d9c:	0f 92       	push	r0
    2d9e:	0f b6       	in	r0, 0x3f	; 63
    2da0:	0f 92       	push	r0
    2da2:	11 24       	eor	r1, r1
    2da4:	0f 90       	pop	r0
    2da6:	0f be       	out	0x3f, r0	; 63
    2da8:	0f 90       	pop	r0
    2daa:	1f 90       	pop	r1
    2dac:	18 95       	reti

00002dae <__vector_33>:
    2dae:	78 94       	sei
    2db0:	1f 92       	push	r1
    2db2:	0f 92       	push	r0
    2db4:	0f b6       	in	r0, 0x3f	; 63
    2db6:	0f 92       	push	r0
    2db8:	11 24       	eor	r1, r1
    2dba:	0f 90       	pop	r0
    2dbc:	0f be       	out	0x3f, r0	; 63
    2dbe:	0f 90       	pop	r0
    2dc0:	1f 90       	pop	r1
    2dc2:	18 95       	reti

00002dc4 <__vector_34>:
    2dc4:	78 94       	sei
    2dc6:	1f 92       	push	r1
    2dc8:	0f 92       	push	r0
    2dca:	0f b6       	in	r0, 0x3f	; 63
    2dcc:	0f 92       	push	r0
    2dce:	11 24       	eor	r1, r1
    2dd0:	0f 90       	pop	r0
    2dd2:	0f be       	out	0x3f, r0	; 63
    2dd4:	0f 90       	pop	r0
    2dd6:	1f 90       	pop	r1
    2dd8:	18 95       	reti

00002dda <__vector_31>:
    2dda:	78 94       	sei
    2ddc:	1f 92       	push	r1
    2dde:	0f 92       	push	r0
    2de0:	0f b6       	in	r0, 0x3f	; 63
    2de2:	0f 92       	push	r0
    2de4:	11 24       	eor	r1, r1
    2de6:	8f 93       	push	r24
    2de8:	9f 93       	push	r25
    2dea:	80 91 96 00 	lds	r24, 0x0096
    2dee:	90 91 97 00 	lds	r25, 0x0097
    2df2:	9f 91       	pop	r25
    2df4:	8f 91       	pop	r24
    2df6:	0f 90       	pop	r0
    2df8:	0f be       	out	0x3f, r0	; 63
    2dfa:	0f 90       	pop	r0
    2dfc:	1f 90       	pop	r1
    2dfe:	18 95       	reti

00002e00 <__vector_35>:
    2e00:	78 94       	sei
    2e02:	1f 92       	push	r1
    2e04:	0f 92       	push	r0
    2e06:	0f b6       	in	r0, 0x3f	; 63
    2e08:	0f 92       	push	r0
    2e0a:	11 24       	eor	r1, r1
    2e0c:	2f 93       	push	r18
    2e0e:	8f 93       	push	r24
    2e10:	9f 93       	push	r25
    2e12:	2f b7       	in	r18, 0x3f	; 63
    2e14:	f8 94       	cli
    2e16:	80 91 a7 02 	lds	r24, 0x02A7
    2e1a:	90 91 a8 02 	lds	r25, 0x02A8
    2e1e:	01 96       	adiw	r24, 0x01	; 1
    2e20:	90 93 a8 02 	sts	0x02A8, r25
    2e24:	80 93 a7 02 	sts	0x02A7, r24
    2e28:	2f bf       	out	0x3f, r18	; 63
    2e2a:	9f 91       	pop	r25
    2e2c:	8f 91       	pop	r24
    2e2e:	2f 91       	pop	r18
    2e30:	0f 90       	pop	r0
    2e32:	0f be       	out	0x3f, r0	; 63
    2e34:	0f 90       	pop	r0
    2e36:	1f 90       	pop	r1
    2e38:	18 95       	reti

00002e3a <main>:
    2e3a:	cf b7       	in	r28, 0x3f	; 63
    2e3c:	f8 94       	cli
    2e3e:	14 be       	out	0x34, r1	; 52
    2e40:	88 e1       	ldi	r24, 0x18	; 24
    2e42:	0f b6       	in	r0, 0x3f	; 63
    2e44:	f8 94       	cli
    2e46:	80 93 60 00 	sts	0x0060, r24
    2e4a:	10 92 60 00 	sts	0x0060, r1
    2e4e:	0f be       	out	0x3f, r0	; 63
    2e50:	45 e1       	ldi	r20, 0x15	; 21
    2e52:	50 e0       	ldi	r21, 0x00	; 0
    2e54:	6f ef       	ldi	r22, 0xFF	; 255
    2e56:	70 e0       	ldi	r23, 0x00	; 0
    2e58:	86 e4       	ldi	r24, 0x46	; 70
    2e5a:	92 e0       	ldi	r25, 0x02	; 2
    2e5c:	0e 94 b0 19 	call	0x3360	; 0x3360 <memset>
    2e60:	8f ef       	ldi	r24, 0xFF	; 255
    2e62:	80 93 d5 03 	sts	0x03D5, r24
    2e66:	80 93 76 04 	sts	0x0476, r24
    2e6a:	56 98       	cbi	0x0a, 6	; 10
    2e6c:	5e 98       	cbi	0x0b, 6	; 11
    2e6e:	54 98       	cbi	0x0a, 4	; 10
    2e70:	5c 98       	cbi	0x0b, 4	; 11
    2e72:	80 91 6f 00 	lds	r24, 0x006F
    2e76:	8f 7d       	andi	r24, 0xDF	; 223
    2e78:	80 93 6f 00 	sts	0x006F, r24
    2e7c:	20 9a       	sbi	0x04, 0	; 4
    2e7e:	0e 94 a9 01 	call	0x352	; 0x352 <HplAtm128GeneralIOPinP__8__IO__set>
    2e82:	27 9a       	sbi	0x04, 7	; 4
    2e84:	0e 94 a7 01 	call	0x34e	; 0x34e <HplAtm128GeneralIOPinP__15__IO__clr>
    2e88:	0e 9a       	sbi	0x01, 6	; 1
    2e8a:	16 9a       	sbi	0x02, 6	; 2
    2e8c:	85 eb       	ldi	r24, 0xB5	; 181
    2e8e:	92 e0       	ldi	r25, 0x02	; 2
    2e90:	90 93 3a 02 	sts	0x023A, r25
    2e94:	80 93 39 02 	sts	0x0239, r24
    2e98:	10 92 a6 02 	sts	0x02A6, r1
    2e9c:	8a e5       	ldi	r24, 0x5A	; 90
    2e9e:	80 93 96 02 	sts	0x0296, r24
    2ea2:	81 e0       	ldi	r24, 0x01	; 1
    2ea4:	80 93 81 00 	sts	0x0081, r24
    2ea8:	80 e2       	ldi	r24, 0x20	; 32
    2eaa:	80 93 b6 00 	sts	0x00B6, r24
    2eae:	83 e0       	ldi	r24, 0x03	; 3
    2eb0:	80 93 b1 00 	sts	0x00B1, r24
    2eb4:	20 91 84 00 	lds	r18, 0x0084
    2eb8:	30 91 85 00 	lds	r19, 0x0085
    2ebc:	8a e7       	ldi	r24, 0x7A	; 122
    2ebe:	40 91 84 00 	lds	r20, 0x0084
    2ec2:	50 91 85 00 	lds	r21, 0x0085
    2ec6:	42 17       	cp	r20, r18
    2ec8:	53 07       	cpc	r21, r19
    2eca:	08 f4       	brcc	.+2      	; 0x2ece <main+0x94>
    2ecc:	81 50       	subi	r24, 0x01	; 1
    2ece:	9a 01       	movw	r18, r20
    2ed0:	81 11       	cpse	r24, r1
    2ed2:	f5 cf       	rjmp	.-22     	; 0x2ebe <main+0x84>
    2ed4:	80 91 b2 00 	lds	r24, 0x00B2
    2ed8:	90 91 b2 00 	lds	r25, 0x00B2
    2edc:	98 17       	cp	r25, r24
    2ede:	e1 f3       	breq	.-8      	; 0x2ed8 <main+0x9e>
    2ee0:	20 91 84 00 	lds	r18, 0x0084
    2ee4:	30 91 85 00 	lds	r19, 0x0085
    2ee8:	80 91 b2 00 	lds	r24, 0x00B2
    2eec:	90 91 b2 00 	lds	r25, 0x00B2
    2ef0:	98 17       	cp	r25, r24
    2ef2:	e1 f3       	breq	.-8      	; 0x2eec <main+0xb2>
    2ef4:	80 91 84 00 	lds	r24, 0x0084
    2ef8:	90 91 85 00 	lds	r25, 0x0085
    2efc:	40 96       	adiw	r24, 0x10	; 16
    2efe:	82 1b       	sub	r24, r18
    2f00:	93 0b       	sbc	r25, r19
    2f02:	55 e0       	ldi	r21, 0x05	; 5
    2f04:	96 95       	lsr	r25
    2f06:	87 95       	ror	r24
    2f08:	5a 95       	dec	r21
    2f0a:	e1 f7       	brne	.-8      	; 0x2f04 <main+0xca>
    2f0c:	90 93 d7 03 	sts	0x03D7, r25
    2f10:	80 93 d6 03 	sts	0x03D6, r24
    2f14:	10 92 b1 00 	sts	0x00B1, r1
    2f18:	10 92 81 00 	sts	0x0081, r1
    2f1c:	10 92 b6 00 	sts	0x00B6, r1
    2f20:	10 92 b2 00 	sts	0x00B2, r1
    2f24:	10 92 85 00 	sts	0x0085, r1
    2f28:	10 92 84 00 	sts	0x0084, r1
    2f2c:	8f ef       	ldi	r24, 0xFF	; 255
    2f2e:	87 bb       	out	0x17, r24	; 23
    2f30:	86 bb       	out	0x16, r24	; 22
    2f32:	80 91 b6 00 	lds	r24, 0x00B6
    2f36:	85 71       	andi	r24, 0x15	; 21
    2f38:	e1 f7       	brne	.-8      	; 0x2f32 <main+0xf8>
    2f3a:	0a 9a       	sbi	0x01, 2	; 1
    2f3c:	09 9a       	sbi	0x01, 1	; 1
    2f3e:	08 9a       	sbi	0x01, 0	; 1
    2f40:	12 9a       	sbi	0x02, 2	; 2
    2f42:	11 9a       	sbi	0x02, 1	; 2
    2f44:	10 9a       	sbi	0x02, 0	; 2
    2f46:	18 b8       	out	0x08, r1	; 8
    2f48:	8f ef       	ldi	r24, 0xFF	; 255
    2f4a:	87 b9       	out	0x07, r24	; 7
    2f4c:	0c 98       	cbi	0x01, 4	; 1
    2f4e:	14 98       	cbi	0x02, 4	; 2
    2f50:	10 92 95 00 	sts	0x0095, r1
    2f54:	10 92 94 00 	sts	0x0094, r1
    2f58:	80 91 71 00 	lds	r24, 0x0071
    2f5c:	81 60       	ori	r24, 0x01	; 1
    2f5e:	80 93 71 00 	sts	0x0071, r24
    2f62:	80 91 91 00 	lds	r24, 0x0091
    2f66:	88 7f       	andi	r24, 0xF8	; 248
    2f68:	82 60       	ori	r24, 0x02	; 2
    2f6a:	80 93 91 00 	sts	0x0091, r24
    2f6e:	80 e0       	ldi	r24, 0x00	; 0
    2f70:	87 7f       	andi	r24, 0xF7	; 247
    2f72:	8f 7e       	andi	r24, 0xEF	; 239
    2f74:	8f 7d       	andi	r24, 0xDF	; 223
    2f76:	8f 7b       	andi	r24, 0xBF	; 191
    2f78:	8f 77       	andi	r24, 0x7F	; 127
    2f7a:	80 93 7a 00 	sts	0x007A, r24
    2f7e:	10 92 85 00 	sts	0x0085, r1
    2f82:	10 92 84 00 	sts	0x0084, r1
    2f86:	80 91 6f 00 	lds	r24, 0x006F
    2f8a:	81 60       	ori	r24, 0x01	; 1
    2f8c:	80 93 6f 00 	sts	0x006F, r24
    2f90:	80 91 81 00 	lds	r24, 0x0081
    2f94:	88 7f       	andi	r24, 0xF8	; 248
    2f96:	82 60       	ori	r24, 0x02	; 2
    2f98:	80 93 81 00 	sts	0x0081, r24
    2f9c:	0e 94 e6 01 	call	0x3cc	; 0x3cc <SchedulerBasicP__popTask>
    2fa0:	d8 2f       	mov	r29, r24
    2fa2:	8f 3f       	cpi	r24, 0xFF	; 255
    2fa4:	19 f0       	breq	.+6      	; 0x2fac <main+0x172>
    2fa6:	0e 94 d2 0d 	call	0x1ba4	; 0x1ba4 <SchedulerBasicP__TaskBasic__runTask>
    2faa:	f8 cf       	rjmp	.-16     	; 0x2f9c <main+0x162>
    2fac:	02 e0       	ldi	r16, 0x02	; 2
    2fae:	16 e0       	ldi	r17, 0x06	; 6
    2fb0:	60 91 d6 03 	lds	r22, 0x03D6
    2fb4:	70 91 d7 03 	lds	r23, 0x03D7
    2fb8:	cb 01       	movw	r24, r22
    2fba:	a0 e0       	ldi	r26, 0x00	; 0
    2fbc:	b0 e0       	ldi	r27, 0x00	; 0
    2fbe:	bc 01       	movw	r22, r24
    2fc0:	cd 01       	movw	r24, r26
    2fc2:	2c e0       	ldi	r18, 0x0C	; 12
    2fc4:	66 0f       	add	r22, r22
    2fc6:	77 1f       	adc	r23, r23
    2fc8:	88 1f       	adc	r24, r24
    2fca:	99 1f       	adc	r25, r25
    2fcc:	2a 95       	dec	r18
    2fce:	d1 f7       	brne	.-12     	; 0x2fc4 <main+0x18a>
    2fd0:	c1 2c       	mov	r12, r1
    2fd2:	31 ee       	ldi	r19, 0xE1	; 225
    2fd4:	d3 2e       	mov	r13, r19
    2fd6:	e1 2c       	mov	r14, r1
    2fd8:	f1 2c       	mov	r15, r1
    2fda:	a7 01       	movw	r20, r14
    2fdc:	96 01       	movw	r18, r12
    2fde:	0e 94 45 19 	call	0x328a	; 0x328a <__udivmodsi4>
    2fe2:	21 50       	subi	r18, 0x01	; 1
    2fe4:	31 09       	sbc	r19, r1
    2fe6:	20 93 c4 00 	sts	0x00C4, r18
    2fea:	30 93 c5 00 	sts	0x00C5, r19
    2fee:	00 93 c0 00 	sts	0x00C0, r16
    2ff2:	10 93 c2 00 	sts	0x00C2, r17
    2ff6:	10 92 c1 00 	sts	0x00C1, r1
    2ffa:	60 91 d6 03 	lds	r22, 0x03D6
    2ffe:	70 91 d7 03 	lds	r23, 0x03D7
    3002:	cb 01       	movw	r24, r22
    3004:	a0 e0       	ldi	r26, 0x00	; 0
    3006:	b0 e0       	ldi	r27, 0x00	; 0
    3008:	bc 01       	movw	r22, r24
    300a:	cd 01       	movw	r24, r26
    300c:	4c e0       	ldi	r20, 0x0C	; 12
    300e:	66 0f       	add	r22, r22
    3010:	77 1f       	adc	r23, r23
    3012:	88 1f       	adc	r24, r24
    3014:	99 1f       	adc	r25, r25
    3016:	4a 95       	dec	r20
    3018:	d1 f7       	brne	.-12     	; 0x300e <main+0x1d4>
    301a:	a7 01       	movw	r20, r14
    301c:	96 01       	movw	r18, r12
    301e:	0e 94 45 19 	call	0x328a	; 0x328a <__udivmodsi4>
    3022:	21 50       	subi	r18, 0x01	; 1
    3024:	31 09       	sbc	r19, r1
    3026:	20 93 cc 00 	sts	0x00CC, r18
    302a:	30 93 cd 00 	sts	0x00CD, r19
    302e:	00 93 c8 00 	sts	0x00C8, r16
    3032:	10 93 ca 00 	sts	0x00CA, r17
    3036:	10 92 c9 00 	sts	0x00C9, r1
    303a:	84 e4       	ldi	r24, 0x44	; 68
    303c:	90 e0       	ldi	r25, 0x00	; 0
    303e:	90 93 cd 03 	sts	0x03CD, r25
    3042:	80 93 cc 03 	sts	0x03CC, r24
    3046:	10 92 b1 02 	sts	0x02B1, r1
    304a:	10 92 b3 02 	sts	0x02B3, r1
    304e:	8a e0       	ldi	r24, 0x0A	; 10
    3050:	80 93 b7 03 	sts	0x03B7, r24
    3054:	10 92 ab 02 	sts	0x02AB, r1
    3058:	10 92 ad 02 	sts	0x02AD, r1
    305c:	10 92 d8 03 	sts	0x03D8, r1
    3060:	10 92 7a 04 	sts	0x047A, r1
    3064:	10 92 79 04 	sts	0x0479, r1
    3068:	10 92 74 04 	sts	0x0474, r1
    306c:	10 92 47 03 	sts	0x0347, r1
    3070:	0e 94 d4 01 	call	0x3a8	; 0x3a8 <SerialP__rxInit>
    3074:	10 92 32 03 	sts	0x0332, r1
    3078:	10 92 31 03 	sts	0x0331, r1
    307c:	10 92 48 03 	sts	0x0348, r1
    3080:	d0 93 ac 02 	sts	0x02AC, r29
    3084:	0e 94 76 04 	call	0x8ec	; 0x8ec <SimpleArbiterP__1__Resource__request.constprop.161>
    3088:	80 91 b6 00 	lds	r24, 0x00B6
    308c:	80 62       	ori	r24, 0x20	; 32
    308e:	80 93 b6 00 	sts	0x00B6, r24
    3092:	80 91 b6 00 	lds	r24, 0x00B6
    3096:	81 fd       	sbrc	r24, 1
    3098:	fc cf       	rjmp	.-8      	; 0x3092 <main+0x258>
    309a:	82 e0       	ldi	r24, 0x02	; 2
    309c:	80 93 b0 00 	sts	0x00B0, r24
    30a0:	80 91 b6 00 	lds	r24, 0x00B6
    30a4:	80 fd       	sbrc	r24, 0
    30a6:	fc cf       	rjmp	.-8      	; 0x30a0 <main+0x266>
    30a8:	83 e0       	ldi	r24, 0x03	; 3
    30aa:	80 93 b1 00 	sts	0x00B1, r24
    30ae:	80 91 b6 00 	lds	r24, 0x00B6
    30b2:	83 fd       	sbrc	r24, 3
    30b4:	fc cf       	rjmp	.-8      	; 0x30ae <main+0x274>
    30b6:	86 ee       	ldi	r24, 0xE6	; 230
    30b8:	80 93 b3 00 	sts	0x00B3, r24
    30bc:	80 91 70 00 	lds	r24, 0x0070
    30c0:	82 60       	ori	r24, 0x02	; 2
    30c2:	80 93 70 00 	sts	0x0070, r24
    30c6:	0e 94 a8 05 	call	0xb50	; 0xb50 <Atm1281AlarmAsyncP__0__setInterrupt>
    30ca:	80 91 12 02 	lds	r24, 0x0212
    30ce:	90 91 13 02 	lds	r25, 0x0213
    30d2:	ac 01       	movw	r20, r24
    30d4:	4f 5f       	subi	r20, 0xFF	; 255
    30d6:	5f 4f       	sbci	r21, 0xFF	; 255
    30d8:	60 e0       	ldi	r22, 0x00	; 0
    30da:	70 e0       	ldi	r23, 0x00	; 0
    30dc:	40 93 a2 02 	sts	0x02A2, r20
    30e0:	50 93 a3 02 	sts	0x02A3, r21
    30e4:	60 93 a4 02 	sts	0x02A4, r22
    30e8:	70 93 a5 02 	sts	0x02A5, r23
    30ec:	21 ee       	ldi	r18, 0xE1	; 225
    30ee:	33 e0       	ldi	r19, 0x03	; 3
    30f0:	30 93 30 02 	sts	0x0230, r19
    30f4:	20 93 2f 02 	sts	0x022F, r18
    30f8:	20 e1       	ldi	r18, 0x10	; 16
    30fa:	34 e0       	ldi	r19, 0x04	; 4
    30fc:	30 93 32 02 	sts	0x0232, r19
    3100:	20 93 31 02 	sts	0x0231, r18
    3104:	2f e3       	ldi	r18, 0x3F	; 63
    3106:	34 e0       	ldi	r19, 0x04	; 4
    3108:	30 93 34 02 	sts	0x0234, r19
    310c:	20 93 33 02 	sts	0x0233, r18
    3110:	82 95       	swap	r24
    3112:	80 7f       	andi	r24, 0xF0	; 240
    3114:	80 93 2b 02 	sts	0x022B, r24
    3118:	8f ef       	ldi	r24, 0xFF	; 255
    311a:	80 93 66 02 	sts	0x0266, r24
    311e:	8f ef       	ldi	r24, 0xFF	; 255
    3120:	9f ef       	ldi	r25, 0xFF	; 255
    3122:	90 93 7f 04 	sts	0x047F, r25
    3126:	80 93 7e 04 	sts	0x047E, r24
    312a:	90 93 81 04 	sts	0x0481, r25
    312e:	80 93 80 04 	sts	0x0480, r24
    3132:	90 93 83 04 	sts	0x0483, r25
    3136:	80 93 82 04 	sts	0x0482, r24
    313a:	90 93 85 04 	sts	0x0485, r25
    313e:	80 93 84 04 	sts	0x0484, r24
    3142:	90 93 87 04 	sts	0x0487, r25
    3146:	80 93 86 04 	sts	0x0486, r24
    314a:	0e 94 e6 01 	call	0x3cc	; 0x3cc <SchedulerBasicP__popTask>
    314e:	8f 3f       	cpi	r24, 0xFF	; 255
    3150:	19 f0       	breq	.+6      	; 0x3158 <main+0x31e>
    3152:	0e 94 d2 0d 	call	0x1ba4	; 0x1ba4 <SchedulerBasicP__TaskBasic__runTask>
    3156:	f9 cf       	rjmp	.-14     	; 0x314a <main+0x310>
    3158:	cf bf       	out	0x3f, r28	; 63
    315a:	78 94       	sei
    315c:	0e 94 ab 01 	call	0x356	; 0x356 <TaskletC__0__Tasklet__suspend>
    3160:	80 91 9a 02 	lds	r24, 0x029A
    3164:	81 11       	cpse	r24, r1
    3166:	1a c0       	rjmp	.+52     	; 0x319c <main+0x362>
    3168:	80 91 2c 02 	lds	r24, 0x022C
    316c:	81 11       	cpse	r24, r1
    316e:	16 c0       	rjmp	.+44     	; 0x319c <main+0x362>
    3170:	80 91 71 04 	lds	r24, 0x0471
    3174:	81 30       	cpi	r24, 0x01	; 1
    3176:	29 f4       	brne	.+10     	; 0x3182 <main+0x348>
    3178:	80 91 b2 03 	lds	r24, 0x03B2
    317c:	81 11       	cpse	r24, r1
    317e:	0e c0       	rjmp	.+28     	; 0x319c <main+0x362>
    3180:	03 c0       	rjmp	.+6      	; 0x3188 <main+0x34e>
    3182:	85 30       	cpi	r24, 0x05	; 5
    3184:	09 f4       	brne	.+2      	; 0x3188 <main+0x34e>
    3186:	6b c0       	rjmp	.+214    	; 0x325e <main+0x424>
    3188:	83 e0       	ldi	r24, 0x03	; 3
    318a:	80 93 2c 02 	sts	0x022C, r24
    318e:	0e 94 c1 0d 	call	0x1b82	; 0x1b82 <TaskletC__0__Tasklet__schedule>
    3192:	85 e0       	ldi	r24, 0x05	; 5
    3194:	80 93 9a 02 	sts	0x029A, r24
    3198:	c0 e0       	ldi	r28, 0x00	; 0
    319a:	01 c0       	rjmp	.+2      	; 0x319e <main+0x364>
    319c:	c5 e0       	ldi	r28, 0x05	; 5
    319e:	0e 94 60 0c 	call	0x18c0	; 0x18c0 <TaskletC__0__Tasklet__resume>
    31a2:	c1 11       	cpse	r28, r1
    31a4:	0e 94 47 02 	call	0x48e	; 0x48e <HplAtm128GeneralIOPinP__2__IO__toggle>
    31a8:	cf b7       	in	r28, 0x3f	; 63
    31aa:	f8 94       	cli
    31ac:	0e 94 e6 01 	call	0x3cc	; 0x3cc <SchedulerBasicP__popTask>
    31b0:	8f 3f       	cpi	r24, 0xFF	; 255
    31b2:	09 f0       	breq	.+2      	; 0x31b6 <main+0x37c>
    31b4:	50 c0       	rjmp	.+160    	; 0x3256 <main+0x41c>
    31b6:	80 91 70 00 	lds	r24, 0x0070
    31ba:	83 70       	andi	r24, 0x03	; 3
    31bc:	89 f0       	breq	.+34     	; 0x31e0 <main+0x3a6>
    31be:	80 91 b6 00 	lds	r24, 0x00B6
    31c2:	8a 71       	andi	r24, 0x1A	; 26
    31c4:	e1 f7       	brne	.-8      	; 0x31be <main+0x384>
    31c6:	80 91 b3 00 	lds	r24, 0x00B3
    31ca:	90 91 b2 00 	lds	r25, 0x00B2
    31ce:	89 1b       	sub	r24, r25
    31d0:	8c 30       	cpi	r24, 0x0C	; 12
    31d2:	40 f0       	brcs	.+16     	; 0x31e4 <main+0x3aa>
    31d4:	80 91 b2 00 	lds	r24, 0x00B2
    31d8:	85 3f       	cpi	r24, 0xF5	; 245
    31da:	20 f4       	brcc	.+8      	; 0x31e4 <main+0x3aa>
    31dc:	83 e0       	ldi	r24, 0x03	; 3
    31de:	03 c0       	rjmp	.+6      	; 0x31e6 <main+0x3ac>
    31e0:	85 e0       	ldi	r24, 0x05	; 5
    31e2:	01 c0       	rjmp	.+2      	; 0x31e6 <main+0x3ac>
    31e4:	82 e0       	ldi	r24, 0x02	; 2
    31e6:	e0 91 6e 00 	lds	r30, 0x006E
    31ea:	e6 70       	andi	r30, 0x06	; 6
    31ec:	e9 f4       	brne	.+58     	; 0x3228 <main+0x3ee>
    31ee:	90 91 6f 00 	lds	r25, 0x006F
    31f2:	9e 72       	andi	r25, 0x2E	; 46
    31f4:	e1 f4       	brne	.+56     	; 0x322e <main+0x3f4>
    31f6:	e0 91 71 00 	lds	r30, 0x0071
    31fa:	ee 72       	andi	r30, 0x2E	; 46
    31fc:	a9 f4       	brne	.+42     	; 0x3228 <main+0x3ee>
    31fe:	0c b4       	in	r0, 0x2c	; 44
    3200:	07 fc       	sbrc	r0, 7
    3202:	15 c0       	rjmp	.+42     	; 0x322e <main+0x3f4>
    3204:	90 91 c1 00 	lds	r25, 0x00C1
    3208:	98 71       	andi	r25, 0x18	; 24
    320a:	89 f4       	brne	.+34     	; 0x322e <main+0x3f4>
    320c:	e0 91 c9 00 	lds	r30, 0x00C9
    3210:	e8 71       	andi	r30, 0x18	; 24
    3212:	51 f4       	brne	.+20     	; 0x3228 <main+0x3ee>
    3214:	90 91 bc 00 	lds	r25, 0x00BC
    3218:	92 fd       	sbrc	r25, 2
    321a:	09 c0       	rjmp	.+18     	; 0x322e <main+0x3f4>
    321c:	90 91 7a 00 	lds	r25, 0x007A
    3220:	97 fd       	sbrc	r25, 7
    3222:	04 c0       	rjmp	.+8      	; 0x322c <main+0x3f2>
    3224:	e5 e0       	ldi	r30, 0x05	; 5
    3226:	03 c0       	rjmp	.+6      	; 0x322e <main+0x3f4>
    3228:	e0 e0       	ldi	r30, 0x00	; 0
    322a:	01 c0       	rjmp	.+2      	; 0x322e <main+0x3f4>
    322c:	e1 e0       	ldi	r30, 0x01	; 1
    322e:	93 b7       	in	r25, 0x33	; 51
    3230:	8e 17       	cp	r24, r30
    3232:	08 f4       	brcc	.+2      	; 0x3236 <main+0x3fc>
    3234:	e8 2f       	mov	r30, r24
    3236:	f0 e0       	ldi	r31, 0x00	; 0
    3238:	ea 5f       	subi	r30, 0xFA	; 250
    323a:	fe 4f       	sbci	r31, 0xFE	; 254
    323c:	84 91       	lpm	r24, Z
    323e:	e9 2f       	mov	r30, r25
    3240:	e0 7f       	andi	r30, 0xF0	; 240
    3242:	e1 60       	ori	r30, 0x01	; 1
    3244:	e8 2b       	or	r30, r24
    3246:	e3 bf       	out	0x33, r30	; 51
    3248:	78 94       	sei
    324a:	88 95       	sleep
    324c:	f8 94       	cli
    324e:	83 b7       	in	r24, 0x33	; 51
    3250:	8e 7f       	andi	r24, 0xFE	; 254
    3252:	83 bf       	out	0x33, r24	; 51
    3254:	ab cf       	rjmp	.-170    	; 0x31ac <main+0x372>
    3256:	cf bf       	out	0x3f, r28	; 63
    3258:	0e 94 d2 0d 	call	0x1ba4	; 0x1ba4 <SchedulerBasicP__TaskBasic__runTask>
    325c:	a5 cf       	rjmp	.-182    	; 0x31a8 <main+0x36e>
    325e:	c9 e0       	ldi	r28, 0x09	; 9
    3260:	9e cf       	rjmp	.-196    	; 0x319e <main+0x364>

00003262 <__udivmodhi4>:
    3262:	aa 1b       	sub	r26, r26
    3264:	bb 1b       	sub	r27, r27
    3266:	51 e1       	ldi	r21, 0x11	; 17
    3268:	07 c0       	rjmp	.+14     	; 0x3278 <__udivmodhi4_ep>

0000326a <__udivmodhi4_loop>:
    326a:	aa 1f       	adc	r26, r26
    326c:	bb 1f       	adc	r27, r27
    326e:	a6 17       	cp	r26, r22
    3270:	b7 07       	cpc	r27, r23
    3272:	10 f0       	brcs	.+4      	; 0x3278 <__udivmodhi4_ep>
    3274:	a6 1b       	sub	r26, r22
    3276:	b7 0b       	sbc	r27, r23

00003278 <__udivmodhi4_ep>:
    3278:	88 1f       	adc	r24, r24
    327a:	99 1f       	adc	r25, r25
    327c:	5a 95       	dec	r21
    327e:	a9 f7       	brne	.-22     	; 0x326a <__udivmodhi4_loop>
    3280:	80 95       	com	r24
    3282:	90 95       	com	r25
    3284:	bc 01       	movw	r22, r24
    3286:	cd 01       	movw	r24, r26
    3288:	08 95       	ret

0000328a <__udivmodsi4>:
    328a:	a1 e2       	ldi	r26, 0x21	; 33
    328c:	1a 2e       	mov	r1, r26
    328e:	aa 1b       	sub	r26, r26
    3290:	bb 1b       	sub	r27, r27
    3292:	fd 01       	movw	r30, r26
    3294:	0d c0       	rjmp	.+26     	; 0x32b0 <__udivmodsi4_ep>

00003296 <__udivmodsi4_loop>:
    3296:	aa 1f       	adc	r26, r26
    3298:	bb 1f       	adc	r27, r27
    329a:	ee 1f       	adc	r30, r30
    329c:	ff 1f       	adc	r31, r31
    329e:	a2 17       	cp	r26, r18
    32a0:	b3 07       	cpc	r27, r19
    32a2:	e4 07       	cpc	r30, r20
    32a4:	f5 07       	cpc	r31, r21
    32a6:	20 f0       	brcs	.+8      	; 0x32b0 <__udivmodsi4_ep>
    32a8:	a2 1b       	sub	r26, r18
    32aa:	b3 0b       	sbc	r27, r19
    32ac:	e4 0b       	sbc	r30, r20
    32ae:	f5 0b       	sbc	r31, r21

000032b0 <__udivmodsi4_ep>:
    32b0:	66 1f       	adc	r22, r22
    32b2:	77 1f       	adc	r23, r23
    32b4:	88 1f       	adc	r24, r24
    32b6:	99 1f       	adc	r25, r25
    32b8:	1a 94       	dec	r1
    32ba:	69 f7       	brne	.-38     	; 0x3296 <__udivmodsi4_loop>
    32bc:	60 95       	com	r22
    32be:	70 95       	com	r23
    32c0:	80 95       	com	r24
    32c2:	90 95       	com	r25
    32c4:	9b 01       	movw	r18, r22
    32c6:	ac 01       	movw	r20, r24
    32c8:	bd 01       	movw	r22, r26
    32ca:	cf 01       	movw	r24, r30
    32cc:	08 95       	ret

000032ce <__tablejump2__>:
    32ce:	ee 0f       	add	r30, r30
    32d0:	ff 1f       	adc	r31, r31
    32d2:	00 24       	eor	r0, r0
    32d4:	00 1c       	adc	r0, r0
    32d6:	0b be       	out	0x3b, r0	; 59
    32d8:	07 90       	elpm	r0, Z+
    32da:	f6 91       	elpm	r31, Z
    32dc:	e0 2d       	mov	r30, r0
    32de:	09 94       	ijmp

000032e0 <__ashldi3>:
    32e0:	0f 93       	push	r16
    32e2:	08 30       	cpi	r16, 0x08	; 8
    32e4:	90 f0       	brcs	.+36     	; 0x330a <__ashldi3+0x2a>
    32e6:	98 2f       	mov	r25, r24
    32e8:	87 2f       	mov	r24, r23
    32ea:	76 2f       	mov	r23, r22
    32ec:	65 2f       	mov	r22, r21
    32ee:	54 2f       	mov	r21, r20
    32f0:	43 2f       	mov	r20, r19
    32f2:	32 2f       	mov	r19, r18
    32f4:	22 27       	eor	r18, r18
    32f6:	08 50       	subi	r16, 0x08	; 8
    32f8:	f4 cf       	rjmp	.-24     	; 0x32e2 <__ashldi3+0x2>
    32fa:	22 0f       	add	r18, r18
    32fc:	33 1f       	adc	r19, r19
    32fe:	44 1f       	adc	r20, r20
    3300:	55 1f       	adc	r21, r21
    3302:	66 1f       	adc	r22, r22
    3304:	77 1f       	adc	r23, r23
    3306:	88 1f       	adc	r24, r24
    3308:	99 1f       	adc	r25, r25
    330a:	0a 95       	dec	r16
    330c:	b2 f7       	brpl	.-20     	; 0x32fa <__ashldi3+0x1a>
    330e:	0f 91       	pop	r16
    3310:	08 95       	ret

00003312 <__ashrdi3>:
    3312:	97 fb       	bst	r25, 7
    3314:	10 f8       	bld	r1, 0

00003316 <__lshrdi3>:
    3316:	16 94       	lsr	r1
    3318:	00 08       	sbc	r0, r0
    331a:	0f 93       	push	r16
    331c:	08 30       	cpi	r16, 0x08	; 8
    331e:	98 f0       	brcs	.+38     	; 0x3346 <__lshrdi3+0x30>
    3320:	08 50       	subi	r16, 0x08	; 8
    3322:	23 2f       	mov	r18, r19
    3324:	34 2f       	mov	r19, r20
    3326:	45 2f       	mov	r20, r21
    3328:	56 2f       	mov	r21, r22
    332a:	67 2f       	mov	r22, r23
    332c:	78 2f       	mov	r23, r24
    332e:	89 2f       	mov	r24, r25
    3330:	90 2d       	mov	r25, r0
    3332:	f4 cf       	rjmp	.-24     	; 0x331c <__lshrdi3+0x6>
    3334:	05 94       	asr	r0
    3336:	97 95       	ror	r25
    3338:	87 95       	ror	r24
    333a:	77 95       	ror	r23
    333c:	67 95       	ror	r22
    333e:	57 95       	ror	r21
    3340:	47 95       	ror	r20
    3342:	37 95       	ror	r19
    3344:	27 95       	ror	r18
    3346:	0a 95       	dec	r16
    3348:	aa f7       	brpl	.-22     	; 0x3334 <__lshrdi3+0x1e>
    334a:	0f 91       	pop	r16
    334c:	08 95       	ret

0000334e <__subdi3>:
    334e:	2a 19       	sub	r18, r10
    3350:	3b 09       	sbc	r19, r11
    3352:	4c 09       	sbc	r20, r12
    3354:	5d 09       	sbc	r21, r13
    3356:	6e 09       	sbc	r22, r14
    3358:	7f 09       	sbc	r23, r15
    335a:	80 0b       	sbc	r24, r16
    335c:	91 0b       	sbc	r25, r17
    335e:	08 95       	ret

00003360 <memset>:
    3360:	dc 01       	movw	r26, r24
    3362:	01 c0       	rjmp	.+2      	; 0x3366 <memset+0x6>
    3364:	6d 93       	st	X+, r22
    3366:	41 50       	subi	r20, 0x01	; 1
    3368:	50 40       	sbci	r21, 0x00	; 0
    336a:	e0 f7       	brcc	.-8      	; 0x3364 <memset+0x4>
    336c:	08 95       	ret

0000336e <_exit>:
    336e:	f8 94       	cli

00003370 <__stop_program>:
    3370:	ff cf       	rjmp	.-2      	; 0x3370 <__stop_program>
